(dp0
S'"U" "TT"'
p1
(dp2
S'"UH"'
p3
F0.0
ssS'"E" "R" "I"'
p4
(dp5
S'"ER"'
p6
F2.6429835272170833e-130
sS'"EY"'
p7
F0.0
sS'"L"'
p8
F6.89917943191371e-248
ssS'"I" "O" "I"'
p9
(dp10
S'"IY"'
p11
F0.0
ssS'"I" "PP" "U"'
p12
(dp13
S'"IH"'
p14
F0.0
sS'"P"'
p15
F0.0
ssS'"K" "I" "N"'
p16
(dp17
S'"K"'
p18
F0.0
ssS'"M" "I" "R"'
p19
(dp20
S'"M"'
p21
F0.0
ssS'"K" "W"'
p22
(dp23
g18
F0.0
ssS'"Z" "A" "A"'
p24
(dp25
S'"S"'
p26
F0.0
sg6
F1.4494227788484143e-236
ssS'"U" "K" "E"'
p27
(dp28
g18
F0.0
ssS'"A" "I" "W"'
p29
(dp30
S'"AY"'
p31
F0.0
ssS'"O" "B" "U"'
p32
(dp33
S'"V"'
p34
F2.9547305695458453e-31
sS'"AA"'
p35
F0.0
sS'"B"'
p36
F0.0
ssS'"Z"'
p37
(dp38
S'"OY"'
p39
F0.0
sS'"G"'
p40
F0.0
sS'"UW"'
p41
F0.0
sS'"AH"'
p42
F0.0
sS'"Z"'
p43
F1.3853448427273608e-07
sg6
F0.0
sg11
F0.0
sS'"EH"'
p44
F0.0
sS'"DH"'
p45
F0.9999999999999989
sS'"R"'
p46
F4.731985733337206e-173
sS'"JH"'
p47
F8.016417071208212e-23
sS'"AE"'
p48
F0.0
sS'"D"'
p49
F1.254053839342113e-34
sS'"AO"'
p50
F0.0
sS'"OW"'
p51
F0.0
sS'"N"'
p52
F0.0
sg21
F0.0
sg31
F0.0
sg14
F0.0
sg7
F0.0
sg35
F0.0
sg26
F1.0698030164816037e-44
ssS'"S" "A" "U"'
p53
(dp54
g26
F0.0
ssS'"U" "Y"'
p55
(dp56
g42
F0.0
sg31
F0.0
ssS'"T" "A" "R"'
p57
(dp58
S'"T"'
p59
F0.0
ssS'"N" "Y" "U" "U"'
p60
(dp61
g52
F0.0
ssS'"R" "I" "N"'
p62
(dp63
g46
F0.0
ssS'"M" "A" "I"'
p64
(dp65
g21
F0.0
ssS'"Y" "A" "KK"'
p66
(dp67
g48
F0.0
ssS'"M" "A"'
p68
(dp69
g21
F1.367835875880592e-38
sg42
F8.874494701504013e-183
sg35
F0.0
sg48
F0.0
ssS'"O" "O" "S"'
p70
(dp71
g50
F0.0
ssS'"TS" "A"'
p72
(dp73
g43
F7.447610430771173e-231
ssS'"SH" "E" "E"'
p74
(dp75
S'"SH"'
p76
F0.0
ssS'"E" "KK" "U"'
p77
(dp78
g44
F0.0
ssS'"U" "Z" "U"'
p79
(dp80
g46
F0.0
sg43
F4.187393320559755e-24
ssS'"K" "U" "S" "U"'
p81
(dp82
g26
F0.0
ssS'"O" "O" "Z"'
p83
(dp84
g50
F2.087466799196434e-144
sg51
F3.356250126959058e-152
ssS'"O" "I"'
p85
(dp86
g39
F1.0
sg11
F0.0
sg41
F1.25634260029561e-221
sS'"W"'
p87
F4.883453870884468e-131
ssS'"O" "P" "E"'
p88
(dp89
g51
F0.0
ssS'"R" "E" "I"'
p90
(dp91
g46
F0.0
sg7
F0.0
sg8
F0.0
ssS'"Y" "O" "I"'
p92
(dp93
g39
F2.0040241632448654e-45
ssS'"T" "O" "R" "U"'
p94
(dp95
g59
F0.0
ssS'"I" "I" "K"'
p96
(dp97
g11
F0.0
ssS'"U" "B"'
p98
(dp99
g34
F3.0317372049434247e-42
sg46
F0.0
sg41
F0.0
sg36
F9.617688248632315e-30
sg8
F0.0
ssS'"R" "U" "Z" "U"'
p100
(dp101
g46
F2.659585022426739e-205
ssS'"M" "U" "U"'
p102
(dp103
g21
F0.0
ssS'"N" "A" "KK"'
p104
(dp105
g48
F0.0
ssS'"U" "U" "G"'
p106
(dp107
g41
F0.0
ssS'"P" "E" "E"'
p108
(dp109
g15
F0.0
ssS'"PAUSE"'
p110
(dp111
S'"PAUSE"'
p112
F1.0
ssS'"O" "P" "A"'
p113
(dp114
g51
F0.0
ssS'"U" "D" "E"'
p115
(dp116
g11
F0.0
ssS'"H" "A" "I"'
p117
(dp118
S'"HH"'
p119
F0.0
sS'"F"'
p120
F0.0
ssS'"A" "SSH"'
p121
(dp122
g42
F0.0
sg44
F0.0
sg48
F0.0
ssS'"KK" "E"'
p123
(dp124
g18
F9.713781475338177e-233
ssS'"E" "TS"'
p125
(dp126
g7
F0.0
ssS'"E" "A" "R"'
p127
(dp128
g44
F0.0
ssS'"Y" "A" "K"'
p129
(dp130
S'"Y"'
p131
F0.0
ssS'"U" "P"'
p132
(dp133
g15
F1.1230361616176071e-52
sg41
F0.0
sg52
F0.0
sg35
F0.0
sg26
F0.0
sg8
F0.0
ssS'"G" "Y"'
p134
(dp135
g40
F7.375348774152433e-30
ssS'"A" "U" "CH"'
p136
(dp137
S'"AW"'
p138
F0.0
ssS'"E" "D"'
p139
(dp140
g44
F0.0
sg51
F0.0
sg11
F0.0
sg7
F0.0
sg49
F6.791545309344624e-178
ssS'"N" "O" "I"'
p141
(dp142
g52
F0.0
ssS'"O" "O" "K" "U"'
p143
(dp144
g51
F0.0
sg18
F0.0
ssS'"O" "PP"'
p145
(dp146
g42
F0.0
sg35
F0.0
sg15
F0.0
ssS'"K" "Y"'
p147
(dp148
g131
F0.0
sg18
F4.120349886032474e-27
ssS'"M" "E" "E"'
p149
(dp150
g21
F0.0
ssS'"U" "A" "R"'
p151
(dp152
g42
F0.0
ssS'"Y" "U"'
p153
(dp154
g31
F0.0
sg76
F0.0
sg41
F2.3043315004475282e-35
sg3
F2.1029603657327582e-24
sg59
F0.0
sg11
F0.0
sg131
F3.851769167130426e-71
ssS'"B" "A" "R"'
p155
(dp156
g42
F0.0
sg36
F0.0
sg34
F0.0
ssS'"I" "P" "U"'
p157
(dp158
g14
F0.0
sg15
F3.473921335591524e-111
ssS'"K" "A" "A"'
p159
(dp160
g18
F0.0
sg6
F0.0
ssS'"GG" "U" "Z"'
p161
(dp162
g40
F1.7243442145890633e-152
ssS'"Y" "A" "TT"'
p163
(dp164
g42
F0.0
sg48
F0.0
ssS'"O" "R" "U"'
p165
(dp166
g50
F0.0
sg51
F3.3680936245944724e-35
sg6
F1.6657381124336658e-265
sg35
F0.0
sg8
F5.004595147085067e-19
ssS'"N" "S"'
p167
(dp168
g52
F0.0
ssS'"Y" "A" "W" "A"'
p169
(dp170
g138
F1.8386651835649412e-228
ssS'"S" "E" "E"'
p171
(dp172
g26
F0.0
ssS'"A" "R" "U" "Z" "U"'
p173
(dp174
g46
F1.1079651975840007e-43
ssS'"P" "O" "O"'
p175
(dp176
g50
F0.0
sg15
F0.0
ssS'"P" "E"'
p177
(dp178
g15
F2.8181545484072165e-41
sg44
F0.0
sg7
F0.0
ssS'"E" "M"'
p179
(dp180
g21
F7.67179456442704e-157
sg42
F0.0
sg11
F0.0
sg44
F0.0
sg7
F0.0
ssS'"N" "W"'
p181
(dp182
g52
F0.0
ssS'"I" "GG"'
p183
(dp184
g14
F0.0
ssS'"A" "R" "A"'
p185
(dp186
g42
F0.0
sg8
F0.0
ssS'"U" "Y" "O"'
p187
(dp188
g42
F0.0
ssS'"S" "A" "N"'
p189
(dp190
g26
F0.0
ssS'"H" "U" "U"'
p191
(dp192
g119
F0.0
sg120
F0.0
ssS'"B" "A"'
p193
(dp194
g42
F0.0
sg34
F2.785596106934856e-197
sg36
F2.3535849870351386e-203
sg6
F0.0
ssS'"A" "A" "D"'
p195
(dp196
g46
F0.0
sg6
F0.0
ssS'"D" "Y" "U" "U"'
p197
(dp198
g49
F0.0
ssS'"K" "U" "T"'
p199
(dp200
g18
F0.0
ssS'"S"'
p201
(dp202
g138
F0.0
sg39
F0.0
sg40
F0.0
sg15
F0.0
sg41
F0.0
sg42
F0.0
sg43
F6.448901667461372e-24
sg6
F0.0
sg11
F0.0
sg7
F0.0
sS'"TH"'
p203
F5.586920540614967e-14
sg46
F0.0
sg120
F0.0
sg44
F0.0
sg50
F0.0
sg31
F0.0
sg52
F0.0
sg8
F0.0
sg21
F0.0
sg51
F0.0
sg18
F0.0
sg14
F0.0
sg48
F0.0
sg35
F0.0
sg26
F0.0001319369648226744
ssS'"NN" "A"'
p204
(dp205
g52
F1.0672057946120254e-229
ssS'"SH" "Y"'
p206
(dp207
g42
F0.0
sg11
F0.0
sg76
F0.41637391559400716
sg48
F0.0
sg26
F0.0
ssS'"S" "U"'
p208
(dp209
g21
F0.0
sg51
F0.0
sg7
F0.0
sg50
F0.0
sg14
F0.0
sg42
F0.0
sg43
F1.255250736098291e-19
sg48
F0.0
sg59
F0.0
sg35
F0.0
sg203
F0.9999999999995612
sg26
F0.9998680630351773
sg44
F0.0
ssS'"O" "S" "A"'
p210
(dp211
g26
F1.7941312708462819e-262
ssS'"B" "A" "U"'
p212
(dp213
g36
F0.0
ssS'"N" "O" "TCH"'
p214
(dp215
g52
F0.0
ssS'"DD" "E"'
p216
(dp217
g49
F0.0
ssS'"I" "S"'
p218
(dp219
g39
F0.0
sg31
F0.0
sg14
F0.0
sg42
F0.0
sg11
F0.0
sg203
F5.919191590839027e-111
sg26
F2.1152884120640556e-250
ssS'"O" "O" "H"'
p220
(dp221
g35
F0.0
ssS'"A"'
p222
(dp223
g138
F1.1751088439425343e-135
sg40
F0.0
sg15
F0.0
sg41
F0.0
sg42
F0.9999999999990951
sg43
F8.966645897120528e-209
sg6
F4.863586684492089e-23
sg11
F8.48633866994423e-45
sg76
F0.0
sg45
F0.0
sg34
F0.0
sg59
F0.0
sg7
F4.91710144057561e-18
sg203
F0.0
sg46
F0.107841193877747
sg120
F0.0
sg47
F0.0
sg44
F6.104380366951085e-32
sg49
F7.78565280759135e-83
sg50
F2.9614018828650392e-31
sg36
F0.0
sS'"ZH"'
p224
F0.0
sS'"CH"'
p225
F0.0
sg3
F1.915770852751889e-33
sg52
F0.0
sS'"NG"'
p226
F0.0
sg131
F1.4078400615416388e-212
sg8
F0.0
sg21
F0.0
sg51
F5.322677288697494e-262
sg18
F0.0
sg14
F3.506908332367522e-53
sg31
F3.598328765724324e-33
sg87
F0.0
sg48
F1.0
sg119
F0.0
sg35
F0.030360011381477623
sg26
F0.0
ssS'"G" "O" "N"'
p227
(dp228
g40
F0.0
ssS'"A" "B" "E"'
p229
(dp230
g34
F0.0
ssS'"U" "SSH"'
p231
(dp232
g3
F0.0
ssS'"S" "E" "O"'
p233
(dp234
g203
F0.0
ssS'"E" "TCH"'
p235
(dp236
g14
F0.0
sg44
F0.0
ssS'"O" "Z" "U"'
p237
(dp238
g43
F2.319777243154541e-15
ssS'"E" "H" "U"'
p239
(dp240
g120
F1.4136394290168532e-183
sg44
F0.0
ssS'"D" "E" "S"'
p241
(dp242
g49
F0.0
ssS'"R" "O" "S"'
p243
(dp244
g50
F0.0
sg51
F0.0
sg8
F0.0
ssS'"I" "N" "G"'
p245
(dp246
g14
F0.0
ssS'"Y" "U" "U"'
p247
(dp248
g41
F2.908486144263241e-15
sg131
F0.0
ssS'"T" "O" "KK"'
p249
(dp250
g35
F0.0
ssS'"A" "W" "E"'
p251
(dp252
g138
F0.0
ssS'"SH" "Y" "O" "O"'
p253
(dp254
g76
F0.0
ssS'"TS"'
p255
(dp256
g59
F3.370596772676238e-27
sg41
F0.0
sg46
F0.0
sg43
F1.0627483157417184e-42
sg7
F0.0
sg6
F0.0
sg52
F0.0
sg35
F0.0
sg11
F0.0
ssS'"O" "E" "E"'
p257
(dp258
g39
F0.0
ssS'"H"'
p259
(dp260
g21
F0.0
sg120
F0.9997933329642591
sg51
F0.0
sg7
F0.0
sg34
F4.036829131065766e-30
sg50
F0.0
sg14
F0.0
sg44
F0.0
sg41
F0.0
sg31
F0.0
sg42
F0.0
sg48
F0.0
sg6
F0.0
sg119
F1.0
sg35
F0.0
sg11
F0.0
sg8
F0.0
ssS'"H" "Y" "U"'
p261
(dp262
g120
F0.0
ssS'"SH" "I" "CH" "Y"'
p263
(dp264
g26
F0.0
ssS'"SSH" "I"'
p265
(dp266
g26
F3.0198653902805068e-114
ssS'"M" "E" "J"'
p267
(dp268
g21
F0.0
ssS'"G" "I"'
p269
(dp270
g40
F5.545922808134509e-107
sg226
F0.0
ssS'"Y" "A" "D"'
p271
(dp272
g35
F0.0
sg48
F0.0
ssS'"SH" "Y" "U"'
p273
(dp274
g76
F1.3671266087892825e-78
ssS'"A" "S"'
p275
(dp276
g14
F0.0
sg42
F0.0
sg48
F0.0
sg6
F0.0
sg35
F1.4411383882766492e-157
sg46
F4.410267163962998e-170
sg26
F6.76607675290079e-229
ssS'"K" "A" "U"'
p277
(dp278
g18
F0.0
ssS'"H" "A" "U"'
p279
(dp280
g119
F0.0
sg120
F0.0
ssS'"HH" "U"'
p281
(dp282
g42
F0.0
sg120
F1.677586208488134e-27
ssS'"O" "PP" "A"'
p283
(dp284
g15
F0.0
ssS'"U" "PP"'
p285
(dp286
g42
F0.0
ssS'"A" "I" "Z"'
p287
(dp288
g31
F2.886663087835394e-163
ssS'"I" "SSH" "Y"'
p289
(dp290
g14
F0.0
ssS'"A" "I" "B"'
p291
(dp292
g31
F0.0
ssS'"A" "J" "I"'
p293
(dp294
g47
F2.69480925100304e-203
sg26
F3.74029354e-316
ssS'"N" "J" "Y"'
p295
(dp296
g52
F0.0
ssS'"CH" "E" "E"'
p297
(dp298
g225
F0.0
ssS'"O" "G" "A"'
p299
(dp300
g40
F0.0
ssS'"R" "A" "I"'
p301
(dp302
g31
F1.5746296314618073e-132
sg46
F0.0
sg8
F0.0
ssS'"CH" "Y"'
p303
(dp304
g225
F5.943259683167368e-11
sg46
F0.0
sg18
F2.9531352940523543e-85
sg59
F4.880876121242564e-39
ssS'"A" "TT" "O"'
p305
(dp306
g59
F0.0
ssS'"N" "E"'
p307
(dp308
g52
F2.798795231511732e-162
sg44
F0.0
ssS'"R" "A" "PP"'
p309
(dp310
g42
F0.0
sg48
F0.0
ssS'"E" "GG" "U"'
p311
(dp312
g44
F0.0
ssS'"T" "E" "S"'
p313
(dp314
g59
F0.0
ssS'"A" "A"'
p315
(dp316
g15
F0.0
sg49
F0.0
sg50
F0.0
sg14
F0.0
sg46
F4.408372207592193e-25
sg42
F1.0796716541146353e-56
sg87
F0.0
sg43
F0.0
sg48
F5.577920262087434e-36
sg6
F1.0
sg35
F1.1898438036868135e-18
sg11
F0.0
sg8
F0.0
ssS'"U" "TS"'
p317
(dp318
g41
F0.0
sg59
F0.0
ssS'"PP" "U" "S"'
p319
(dp320
g15
F0.0
ssS'"I" "TCH" "I"'
p321
(dp322
g14
F0.0
ssS'"O" "O" "SH"'
p323
(dp324
g51
F0.0
ssS'"E" "PP" "U"'
p325
(dp326
g15
F0.0
ssS'"R" "I" "KK"'
p327
(dp328
g14
F0.0
ssS'"Y" "A" "M"'
p329
(dp330
g48
F0.0
ssS'"A" "J"'
p331
(dp332
g47
F4.456032214603643e-211
sg7
F0.0
sg42
F0.0
sg48
F0.0
sg6
F0.0
sg35
F0.0
sg46
F0.0
sg26
F1.0164186023760757e-229
ssS'"Z" "A" "KK"'
p333
(dp334
g26
F0.0
ssS'"A" "Z" "U"'
p335
(dp336
g43
F1.1193479166413625e-216
ssS'"R" "U" "P"'
p337
(dp338
g8
F0.0
ssS'"ZZ"'
p339
(dp340
g49
F1.0625241764199724e-157
ssS'"KK" "A"'
p341
(dp342
g18
F8.228215979563946e-209
ssS'"N" "Z" "U"'
p343
(dp344
g43
F0.0
ssS'"PP" "I" "I"'
p345
(dp346
g11
F0.0
sg15
F0.0
ssS'"T" "O" "R"'
p347
(dp348
g59
F6.762469042881207e-234
ssS'"O" "H" "U"'
p349
(dp350
g50
F0.0
sg120
F0.0
sg35
F0.0
ssS'"I" "K" "A"'
p351
(dp352
g18
F2.4283353706e-314
ssS'"D" "Y"'
p353
(dp354
g49
F1.7849286728057273e-34
ssS'"TS" "A" "I"'
p355
(dp356
g43
F0.0
ssS'"O" "O" "I"'
p357
(dp358
g39
F5.912408900365298e-19
ssS'"I" "Z"'
p359
(dp360
g39
F0.0
sg31
F0.0
sg49
F1.199882379093238e-240
sg14
F6.471382908750882e-156
sg43
F1.877278222249792e-114
sg11
F1.7898448303461665e-181
ssS'"TT" "I"'
p361
(dp362
g59
F4.570282169068094e-126
ssS'"U" "B" "I"'
p363
(dp364
g34
F8.147772541618354e-186
sg36
F2.8234622461109575e-193
ssS'"E" "E" "O"'
p365
(dp366
g7
F0.0
ssS'"O" "O" "CH"'
p367
(dp368
g51
F0.0
ssS'"U" "M" "A"'
p369
(dp370
g21
F0.0
sg42
F0.0
ssS'"A" "A" "S"'
p371
(dp372
g6
F0.0
ssS'"I" "Z" "U"'
p373
(dp374
g43
F6.0788464576725655e-111
ssS'"I" "S" "U" "T"'
p375
(dp376
g26
F0.0
ssS'"N" "G" "U"'
p377
(dp378
g226
F0.0002827292430169135
ssS'"O" "J"'
p379
(dp380
g35
F0.0
sg46
F0.0
ssS'"R" "A" "H"'
p381
(dp382
g50
F0.0
sg42
F0.0
sg48
F0.0
ssS'"J" "I" "I"'
p383
(dp384
g11
F0.0
sg47
F0.0
ssS'"I" "H"'
p385
(dp386
g42
F0.0
sg11
F0.0
sg120
F0.0
sg31
F0.0
sg14
F0.0
ssS'"A" "K" "U"'
p387
(dp388
g42
F0.0
sg48
F0.0
sg18
F3.835204966921738e-223
ssS'"I" "I" "D"'
p389
(dp390
g11
F0.0
ssS'"W" "A" "T"'
p391
(dp392
g35
F0.0
ssS'"U" "K" "Y"'
p393
(dp394
g18
F0.0
ssS'"S" "A" "KK"'
p395
(dp396
g26
F0.0
ssS'"O" "P" "O"'
p397
(dp398
g15
F6.088690258789856e-41
ssS'"U" "U" "B" "U"'
p399
(dp400
g36
F0.0
ssS'"A" "GG"'
p401
(dp402
g42
F0.0
sg48
F0.0
ssS'"R" "O" "H"'
p403
(dp404
g8
F0.0
ssS'"U" "G"'
p405
(dp406
g40
F1.0028446752658262e-30
sg41
F0.0
sg3
F0.0
ssS'"S" "E"'
p407
(dp408
g203
F0.0
sg26
F3.659862449840986e-33
ssS'"M" "A" "KK"'
p409
(dp410
g48
F0.0
ssS'"KK" "U"'
p411
(dp412
g14
F0.0
sg35
F0.0
sg48
F0.0
sg18
F3.432868682280616e-05
sg44
F0.0
ssS'"O" "R" "O"'
p413
(dp414
g50
F0.0
sg46
F2.408455262774875e-37
ssS'"I" "B" "A"'
p415
(dp416
g34
F6.151096220210525e-300
sg36
F0.0
ssS'"I" "A"'
p417
(dp418
g31
F0.0
sg14
F9.779709731928423e-230
sg46
F0.0
sg42
F1.395724053115725e-125
sg48
F0.0
sg6
F0.0
sg35
F1e-323
sg11
F5.126150056167653e-55
ssS'"H" "I" "SSH"'
p419
(dp420
g120
F0.0
ssS'"U" "H" "U"'
p421
(dp422
g120
F5.5078133434460455e-25
ssS'"N" "J"'
p423
(dp424
g52
F0.0
ssS'"I" "I" "B"'
p425
(dp426
g42
F0.0
sg11
F0.0
ssS'"P" "E" "I"'
p427
(dp428
g15
F0.0
sg7
F0.0
ssS'"O" "R" "U" "K"'
p429
(dp430
g6
F0.0
ssS'"KK" "I" "I"'
p431
(dp432
g11
F0.0
ssS'"D" "A"'
p433
(dp434
g42
F0.0
sg35
F0.0
sg48
F0.0
sg49
F2.3993349588643707e-65
ssS'"I" "R" "I"'
p435
(dp436
g46
F0.0
ssS'"O" "KK" "I"'
p437
(dp438
g18
F0.0
ssS'"O" "R" "U" "D"'
p439
(dp440
g8
F0.0
ssS'"I" "O"'
p441
(dp442
g51
F0.0
sg50
F8.693618281358708e-186
sg42
F0.0
sg7
F0.0
sg11
F0.0
sg35
F3.5e-323
ssS'"E" "Y" "A"'
p443
(dp444
g7
F2.215515707709001e-224
ssS'"S" "U" "P"'
p445
(dp446
g26
F0.0
ssS'"U" "CH"'
p447
(dp448
g138
F0.0
sg225
F0.0
sg59
F1.669541060376724e-198
ssS'"I" "CH"'
p449
(dp450
g11
F0.0
sg59
F3.072897804375701e-285
ssS'"O" "O" "T"'
p451
(dp452
g50
F0.0
sg51
F0.0
sg35
F0.0
sg46
F0.0
ssS'"U" "T"'
p453
(dp454
g138
F0.0
sg120
F0.0
sg18
F0.0
sg6
F0.0
sg41
F0.0
sg3
F0.0
sg59
F7.636759536047316e-25
sg26
F0.0
sg8
F0.0
ssS'"D" "Y" "U"'
p455
(dp456
g49
F5.943960691340714e-103
ssS'"H" "U" "T"'
p457
(dp458
g120
F0.0
ssS'"A" "A" "K" "U"'
p459
(dp460
g18
F0.0
ssS'"A" "I" "N"'
p461
(dp462
g52
F0.0
sg31
F0.0
ssS'"CH" "Y" "O" "O"'
p463
(dp464
g225
F0.0
ssS'"H" "E" "E"'
p465
(dp466
g120
F0.0
ssS'"R" "A" "JJ"'
p467
(dp468
g42
F0.0
ssS'"R" "E" "S"'
p469
(dp470
g11
F0.0
sg44
F0.0
sg46
F0.0
ssS'"B" "A" "GG"'
p471
(dp472
g36
F0.0
ssS'"KK" "U" "S"'
p473
(dp474
g18
F0.0
ssS'"U" "T" "I"'
p475
(dp476
g59
F0.0
ssS'"I" "DD"'
p477
(dp478
g42
F0.0
sg14
F0.0
ssS'"R" "U" "K"'
p479
(dp480
g6
F0.0
sg46
F0.0
sg18
F3.490000081038418e-44
sg8
F0.0
ssS'"SH" "Y" "U" "U"'
p481
(dp482
g76
F0.0
ssS'"R" "I" "M"'
p483
(dp484
g14
F0.0
ssS'"E" "K" "A"'
p485
(dp486
g18
F0.0
ssS'"O" "KK"'
p487
(dp488
g42
F0.0
sg35
F0.0
sg3
F0.0
sg18
F0.0
ssS'"A" "I" "S"'
p489
(dp490
g31
F0.0
ssS'"P" "A"'
p491
(dp492
g42
F0.0
sg35
F0.0
sg15
F2.0546932121779322e-50
sg48
F0.0
ssS'"S" "E" "I"'
p493
(dp494
g26
F0.0
ssS'"G" "A" "A"'
p495
(dp496
g40
F0.0
sg6
F2.1076031449972464e-41
ssS'"Y" "U" "U" "T"'
p497
(dp498
g41
F0.0
ssS'"Y" "A" "R"'
p499
(dp500
g48
F0.0
sg6
F8.035456777215036e-52
ssS'"E" "E" "D"'
p501
(dp502
g7
F0.0
ssS'"SSH" "E"'
p503
(dp504
g76
F0.0
ssS'"H" "U" "S"'
p505
(dp506
g120
F0.0
ssS'"O" "TT"'
p507
(dp508
g42
F0.0
sg35
F0.0
ssS'"NN"'
p509
(dp510
g44
F0.0
sg14
F0.0
sg42
F0.0
sg52
F1.1186281340478389e-35
sg35
F0.0
sg11
F0.0
ssS'"E" "E" "R"'
p511
(dp512
g14
F0.0
sg44
F0.0
sg7
F0.0
ssS'"N" "Y"'
p513
(dp514
g52
F1.5323033222082443e-45
ssS'"Y" "O" "O" "R"'
p515
(dp516
g50
F0.0
ssS'"O" "O" "E" "D"'
p517
(dp518
g51
F0.0
ssS'"E" "G"'
p519
(dp520
g40
F3.6585152685616374e-151
sg44
F0.0
sg7
F0.0
ssS'"U" "U" "D" "O"'
p521
(dp522
g49
F0.0
ssS'"T" "I" "I"'
p523
(dp524
g11
F0.0
sg59
F0.0
ssS'"CH" "E"'
p525
(dp526
g225
F3.8556061331643794e-142
ssS'"I" "G" "A"'
p527
(dp528
g40
F2.553962282078917e-309
ssS'"T" "A" "GG"'
p529
(dp530
g48
F0.0
ssS'"SH" "I" "CH"'
p531
(dp532
g26
F0.0
ssS'"E" "E" "M"'
p533
(dp534
g7
F0.0
ssS'"A" "A" "H"'
p535
(dp536
g48
F0.0
sg6
F0.0
ssS'"U" "P" "E"'
p537
(dp538
g15
F0.0
ssS'"HH" "U" "T"'
p539
(dp540
g120
F0.0
ssS'"A" "D" "I"'
p541
(dp542
g49
F4.8093388313e-313
ssS'"U" "PP" "U"'
p543
(dp544
g15
F0.0
ssS'"K" "I" "PP"'
p545
(dp546
g14
F0.0
ssS'"E" "O" "R"'
p547
(dp548
g14
F0.0
ssS'"SH" "E"'
p549
(dp550
g76
F3.5044375174277736e-132
ssS'"O" "SS"'
p551
(dp552
g35
F0.0
ssS'"CH" "Y" "A" "I"'
p553
(dp554
g225
F0.0
ssS'"W" "O" "SSH"'
p555
(dp556
g87
F0.0
ssS'"E" "H"'
p557
(dp558
g42
F0.0
sg11
F0.0
sg44
F0.0
sg7
F0.0
sg120
F8.397665696168116e-240
ssS'"S" "O" "N"'
p559
(dp560
g26
F0.0
ssS'"O" "TCH" "I"'
p561
(dp562
g35
F0.0
sg225
F0.0
ssS'"D" "A" "R" "U" "K"'
p563
(dp564
g49
F0.0
ssS'"U" "M" "O"'
p565
(dp566
g21
F0.0
ssS'"NN" "O"'
p567
(dp568
g52
F0.0
ssS'"A" "B" "I"'
p569
(dp570
g36
F5.929325595e-315
ssS'"R" "U" "D" "O"'
p571
(dp572
g49
F0.0
ssS'"I" "M" "A"'
p573
(dp574
g21
F1.13641051e-315
ssS'"TS" "U" "U"'
p575
(dp576
g59
F0.0
ssS'"J" "Y" "O" "O"'
p577
(dp578
g47
F0.0
ssS'"E" "B" "U"'
p579
(dp580
g34
F5.348759043502338e-142
sg36
F2.763353950030139e-156
ssS'"S" "O" "KK"'
p581
(dp582
g26
F0.0
ssS'"T"'
p583
(dp584
g138
F0.0
sg41
F0.0
sg42
F0.0
sg6
F0.0
sg11
F0.0
sg59
F0.9594796935405842
sg7
F0.0
sg203
F4.1789561372011825e-69
sg46
F0.0
sg120
F0.0
sg44
F0.0
sg49
F1.49611833646807e-162
sg50
F0.0
sg31
F0.0
sg3
F0.0
sg52
F0.0
sg8
F0.0
sg51
F0.0
sg18
F0.0
sg14
F0.0
sg48
F0.0
sg35
F0.0
sg26
F0.0
ssS'"I" "KK" "U"'
p585
(dp586
g14
F0.0
sg18
F0.0
ssS'"J" "Y" "U"'
p587
(dp588
g47
F1.7471751305509955e-83
sg49
F4.478082689541434e-106
ssS'"S" "U" "I"'
p589
(dp590
g26
F0.0
ssS'"P" "O" "N"'
p591
(dp592
g49
F0.0
ssS'"U" "U" "H"'
p593
(dp594
g41
F0.0
ssS'"O" "I" "R"'
p595
(dp596
g39
F0.0
ssS'"R" "I"'
p597
(dp598
g14
F1.2714097928053834e-151
sg42
F0.0
sg6
F0.0
sg11
F9.462767937255159e-55
sg46
F3.4101765088221997e-102
sg8
F5.3135325791145e-103
ssS'"K" "O"'
p599
(dp600
g51
F0.0
sg18
F1.9341667740643285e-26
sg50
F0.0
sg42
F0.0
sg35
F0.0
sg26
F0.0
ssS'"I" "JJ"'
p601
(dp602
g14
F0.0
ssS'"H" "I" "R"'
p603
(dp604
g119
F0.0
sg120
F0.0
ssS'"GG" "U"'
p605
(dp606
g40
F3.1390337558691356e-09
sg48
F0.0
ssS'"A" "TT" "A"'
p607
(dp608
g59
F0.0
ssS'"W" "I" "I"'
p609
(dp610
g87
F0.0
ssS'"O" "N" "A"'
p611
(dp612
g52
F3.6420660045620246e-240
ssS'"B"'
p613
(dp614
g21
F0.0
sg31
F0.0
sg51
F0.0
sg7
F0.0
sg34
F0.9999999866624397
sg50
F0.0
sg14
F0.0
sg44
F0.0
sg41
F0.0
sg36
F0.9999999999935197
sg46
F0.0
sg42
F0.0
sg48
F0.0
sg6
F0.0
sg52
F0.0
sg35
F0.0
sg11
F0.0
sg8
F0.0
ssS'"A" "NN" "U"'
p615
(dp616
g52
F0.0
ssS'"K" "E" "TCH"'
p617
(dp618
g44
F0.0
ssS'"A" "I" "A"'
p619
(dp620
g31
F4.32301600184414e-256
sg48
F0.0
sg6
F0.0
ssS'"I" "D" "A"'
p621
(dp622
g49
F4.744991587358199e-305
ssS'"O" "O" "M"'
p623
(dp624
g51
F0.0
sg6
F0.0
ssS'"Y" "U" "U" "R" "E"'
p625
(dp626
g6
F8.372347393158112e-42
ssS'"A" "M"'
p627
(dp628
g21
F9.095698192985083e-184
sg7
F0.0
sg42
F0.0
sg48
F0.0
sg6
F0.0
sg35
F0.0
sg46
F0.0
ssS'"J" "I" "R"'
p629
(dp630
g47
F0.0
ssS'"K" "O" "N"'
p631
(dp632
g18
F0.0
ssS'"I" "SH"'
p633
(dp634
g11
F0.0
sg26
F1.8456585122399311e-127
ssS'"TT"'
p635
(dp636
g44
F0.0
sg14
F0.0
sg42
F0.0
sg3
F0.0
sg48
F0.0
sg59
F5.442994936890777e-20
sg35
F0.0
ssS'"Y" "A" "A" "K"'
p637
(dp638
g6
F0.0
ssS'"Y" "A" "TCH"'
p639
(dp640
g48
F0.0
ssS'"A" "PP"'
p641
(dp642
g42
F0.0
sg35
F0.0
sg48
F0.0
ssS'"R" "U" "T"'
p643
(dp644
g6
F0.0
sg8
F0.0
ssS'"I" "I" "J"'
p645
(dp646
g11
F0.0
ssS'"A" "CH" "Y"'
p647
(dp648
g46
F0.0
ssS'"O" "DD"'
p649
(dp650
g35
F0.0
ssS'"O" "I" "D"'
p651
(dp652
g39
F0.0
ssS'"G" "E"'
p653
(dp654
g40
F4.625256923073599e-29
ssS'"G" "O"'
p655
(dp656
g40
F5.792909970728022e-23
sg51
F0.0
sg35
F0.0
ssS'"O" "R" "E"'
p657
(dp658
g46
F1.5362228611633031e-146
sg6
F0.0
ssS'"O" "M" "A"'
p659
(dp660
g21
F0.0
ssS'"D" "A" "I"'
p661
(dp662
g49
F0.0
ssS'"I" "S" "U"'
p663
(dp664
g14
F0.0
sg203
F6.325413527225367e-109
sg43
F9.121416484025204e-113
sg26
F2.245446789960018e-119
ssS'"D" "I" "R"'
p665
(dp666
g42
F0.0
ssS'"A" "R" "U" "K" "U"'
p667
(dp668
g11
F1.669846566066653e-40
ssS'"I" "Y" "A"'
p669
(dp670
g11
F0.0
sg31
F0.0
sg6
F0.0
ssS'"D" "E"'
p671
(dp672
g11
F0.0
sg49
F3.799737446349782e-145
ssS'"O" "E" "D"'
p673
(dp674
g51
F0.0
ssS'"A" "G" "I"'
p675
(dp676
g40
F0.0
ssS'"I" "B" "U"'
p677
(dp678
g34
F1.0681226955315372e-110
ssS'"G" "A"'
p679
(dp680
g42
F0.0
sg40
F7.3592457879309e-24
sg226
F0.0
sg48
F0.0
sg6
F0.0
ssS'"K" "A" "Y"'
p681
(dp682
g18
F0.0
ssS'"H" "O" "KK"'
p683
(dp684
g120
F0.0
ssS'"Y" "U" "G"'
p685
(dp686
g3
F0.0
ssS'"N" "B"'
p687
(dp688
g21
F0.0
sg52
F0.0
sg36
F0.0
ssS'"A" "D"'
p689
(dp690
g49
F2.666543954460124e-226
sg42
F0.0
sg48
F0.0
sg6
F0.0
sg35
F0.0
sg46
F0.0
ssS'"G"'
p691
(dp692
g51
F0.0
sg7
F0.0
sg50
F0.0
sg14
F0.0
sg41
F0.0
sg40
F0.999985029581523
sg46
F0.0
sg42
F0.0
sg87
F0.0
sg3
F0.0
sg48
F0.0
sg31
F0.0
sg35
F0.0
sg226
F3.087131769667719e-251
sg11
F0.0
sg44
F0.0
ssS'"U" "J"'
p693
(dp694
g47
F2.2941385265209367e-23
sg49
F0.0
sg8
F0.0
ssS'"O" "N"'
p695
(dp696
g138
F0.0
sg21
F0.0
sg51
F0.0
sg49
F0.0
sg50
F0.0
sg42
F0.0
sg52
F6.154630679592548e-33
sg35
F1.8822422587207705e-31
sg46
F0.0
ssS'"TCH" "I"'
p697
(dp698
g14
F0.0
sg35
F0.0
sg225
F0.971407867073288
sg48
F0.0
ssS'"SH" "I" "R"'
p699
(dp700
g26
F0.0
ssS'"I" "R" "A"'
p701
(dp702
g6
F0.0
sg8
F4.0846588294627e-310
ssS'"E" "E" "K"'
p703
(dp704
g11
F0.0
sg7
F0.0
ssS'"A" "I" "M" "U"'
p705
(dp706
g21
F0.0
ssS'"R" "I" "JJ"'
p707
(dp708
g14
F0.0
ssS'"T" "I" "KK"'
p709
(dp710
g14
F0.0
ssS'"O" "SH" "Y"'
p711
(dp712
g76
F8.450522450776526e-27
ssS'"A" "M" "U"'
p713
(dp714
g21
F6.0984728804896386e-43
sg46
F0.0
ssS'"Y" "A" "N"'
p715
(dp716
g42
F0.0
sg131
F0.0
sg48
F0.0
sg52
F0.0
ssS'"Y" "U" "U" "B"'
p717
(dp718
g41
F0.0
ssS'"Y" "O" "G"'
p719
(dp720
g35
F0.0
ssS'"O" "D" "A"'
p721
(dp722
g49
F2.1012828363309888e-226
ssS'"E" "K" "U"'
p723
(dp724
g44
F0.0
sg18
F2.4813614543271587e-146
ssS'"O" "G"'
p725
(dp726
g50
F0.0
sg40
F3.686785416816595e-44
sg51
F0.0
sg35
F0.0
ssS'"O" "O" "B"'
p727
(dp728
g50
F0.0
sg51
F0.0
sg35
F0.0
ssS'"I" "N" "T"'
p729
(dp730
g52
F0.0
ssS'"D" "I" "N"'
p731
(dp732
g49
F0.0
ssS'"Y" "U" "A"'
p733
(dp734
g41
F0.0
ssS'"Z" "E"'
p735
(dp736
g42
F0.0
sg47
F0.0
sg43
F1.1985791935003794e-221
sg26
F0.0
ssS'"D" "A" "A"'
p737
(dp738
g49
F0.0
sg6
F0.0
ssS'"A" "KK" "U"'
p739
(dp740
g35
F0.0
sg48
F0.0
sg18
F0.0
ssS'"S" "U" "T"'
p741
(dp742
g26
F0.0
ssS'"I" "T" "A"'
p743
(dp744
g59
F2.851288076328957e-181
ssS'"I" "K"'
p745
(dp746
g14
F0.0
sg11
F0.0
sg31
F0.0
sg18
F2.2335445469628064e-124
ssS'"RR"'
p747
(dp748
g8
F0.0
ssS'"I" "W" "E"'
p749
(dp750
g87
F0.0
ssS'"A" "A" "T"'
p751
(dp752
g35
F0.0
sg46
F0.0
sg6
F0.0
ssS'"D" "A" "SSH"'
p753
(dp754
g49
F0.0
ssS'"A" "SSH" "Y" "U"'
p755
(dp756
g76
F0.0
ssS'"B" "I"'
p757
(dp758
g31
F0.0
sg34
F1.2911403152470936e-103
sg14
F0.0
sg36
F8.75374774353301e-106
sg42
F0.0
sg11
F0.0
ssS'"H" "I" "I"'
p759
(dp760
g119
F0.0
sg120
F0.0
sg11
F0.0
ssS'"S" "A" "I"'
p761
(dp762
g31
F0.0
sg26
F0.0
ssS'"K" "E" "R"'
p763
(dp764
g18
F0.0
ssS'"O" "O" "P"'
p765
(dp766
g50
F0.0
sg51
F0.0
ssS'"E" "N" "J"'
p767
(dp768
g52
F0.0
sg44
F0.0
ssS'"A" "R" "I"'
p769
(dp770
g14
F0.0
sg6
F6.436895926269222e-124
sg46
F5.7147008356079026e-123
sg8
F5.35972247344974e-310
ssS'"A" "HH" "U"'
p771
(dp772
g42
F0.0
sg120
F0.0
ssS'"I" "SS"'
p773
(dp774
g42
F0.0
ssS'"SS" "E"'
p775
(dp776
g26
F0.0
ssS'"I" "D"'
p777
(dp778
g39
F0.0
sg31
F0.0
sg49
F1.4106597436567412e-115
sg14
F0.0
sg225
F0.0
sg7
F0.0
sg11
F0.0
sg131
F0.0
ssS'"A" "HH"'
p779
(dp780
g42
F0.0
sg35
F0.0
sg48
F0.0
ssS'"A" "S" "A"'
p781
(dp782
g42
F0.0
sg26
F0.0
ssS'"CH" "Y" "A" "A"'
p783
(dp784
g225
F0.0
ssS'"I" "JJ" "I"'
p785
(dp786
g47
F0.0
ssS'"A" "U" "T"'
p787
(dp788
g138
F0.0
ssS'"R" "A" "GG"'
p789
(dp790
g42
F0.0
sg48
F0.0
sg8
F0.0
ssS'"A" "N" "D"'
p791
(dp792
g52
F0.0
ssS'"N" "A" "PP"'
p793
(dp794
g48
F0.0
ssS'"PP" "A"'
p795
(dp796
g15
F9.462157639318122e-213
ssS'"R" "E" "H"'
p797
(dp798
g8
F0.0
ssS'"U" "A"'
p799
(dp800
g42
F0.0
sg3
F8.590643155360927e-15
sg41
F0.0
sg46
F3.368883926995e-311
sg52
F5.978641043282124e-306
ssS'"Y" "O" "GG"'
p801
(dp802
g35
F0.0
ssS'"T" "E" "M"'
p803
(dp804
g42
F0.0
sg44
F0.0
sg59
F0.0
ssS'"G" "I" "H"'
p805
(dp806
g40
F0.0
ssS'"I" "I" "G"'
p807
(dp808
g11
F0.0
ssS'"O" "O" "D"'
p809
(dp810
g51
F0.0
ssS'"N" "K"'
p811
(dp812
g52
F0.0
sg226
F0.0
ssS'"T" "A" "HH"'
p813
(dp814
g48
F0.0
ssS'"B" "Y" "U"'
p815
(dp816
g34
F0.0
ssS'"CH" "I" "D"'
p817
(dp818
g225
F0.0
ssS'"TCH"'
p819
(dp820
g44
F0.0
sg14
F0.0
sg42
F0.0
sg225
F1.413127774106742e-57
sg48
F0.0
sg59
F2.25328460982312e-33
sg35
F0.0
ssS'"P"'
p821
(dp822
g21
F0.0
sg120
F0.0
sg51
F0.0
sg15
F0.9999999958623494
sg7
F0.0
sg50
F0.0
sg14
F0.0
sg44
F0.0
sg41
F0.0
sg31
F0.0
sg46
F0.0
sg42
F0.0
sg48
F0.0
sg52
F0.0
sg35
F0.0
sg11
F0.0
sg26
F0.0
sg8
F0.0
ssS'"U" "U" "R"'
p823
(dp824
g41
F0.0
sg3
F0.0
sg6
F0.0
ssS'"I" "O" "H"'
p825
(dp826
g50
F0.0
ssS'"TCH" "Y" "A"'
p827
(dp828
g225
F4.1115020386301e-210
ssS'"I" "N" "A"'
p829
(dp830
g42
F0.0
sg52
F0.0
ssS'"O" "I" "Z"'
p831
(dp832
g39
F1.0832397992411111e-145
ssS'"I" "M" "E"'
p833
(dp834
g14
F0.0
ssS'"R" "U" "K" "O"'
p835
(dp836
g18
F0.0
ssS'"M" "I" "KK"'
p837
(dp838
g21
F0.0
ssS'"E" "D" "O"'
p839
(dp840
g49
F1.6484014082728697e-40
ssS'"I" "DD" "O"'
p841
(dp842
g49
F0.0
ssS'"R" "O" "TCH"'
p843
(dp844
g35
F0.0
ssS'"W" "I" "N"'
p845
(dp846
g87
F0.0
ssS'"E" "E" "SH"'
p847
(dp848
g7
F0.0
ssS'"M" "O" "S"'
p849
(dp850
g21
F0.0
ssS'"E" "K"'
p851
(dp852
g42
F0.0
sg11
F0.0
sg18
F4.783659555157822e-151
sg7
F0.0
sg44
F0.0
ssS'"A" "N" "M"'
p853
(dp854
g48
F0.0
ssS'"N" "T"'
p855
(dp856
g52
F2.1208791923630672e-75
sg44
F0.0
ssS'"Y" "A" "W"'
p857
(dp858
g138
F3.797398999846654e-40
ssS'"U" "T" "A"'
p859
(dp860
g59
F3.054584917779434e-220
ssS'"E" "E" "Y"'
p861
(dp862
g7
F1.0589887600609716e-154
ssS'"U" "I" "N"'
p863
(dp864
g87
F0.0
sg226
F0.0
ssS'"N" "SH"'
p865
(dp866
g52
F0.0
ssS'"W" "E" "R"'
p867
(dp868
g42
F0.0
sg87
F0.0
ssS'"T" "I" "HH"'
p869
(dp870
g14
F0.0
ssS'"M" "E"'
p871
(dp872
g21
F7.032289936703083e-141
sg42
F0.0
ssS'"O" "K" "A"'
p873
(dp874
g18
F1.1635778937339402e-221
ssS'"U" "U" "TS"'
p875
(dp876
g41
F0.0
ssS'"M" "O" "R"'
p877
(dp878
g21
F0.0
ssS'"R" "I" "TT"'
p879
(dp880
g14
F0.0
ssS'"U" "R" "U"'
p881
(dp882
g6
F8.04054306737519e-40
sg46
F2.0163704193422656e-97
sg8
F6.335680018438074e-41
ssS'"O" "PP" "I"'
p883
(dp884
g15
F0.0
ssS'"A" "TTS"'
p885
(dp886
g59
F0.0
ssS'"A" "B" "U"'
p887
(dp888
g34
F4.502452611137192e-217
sg36
F2.078313957677016e-225
ssS'"R" "A" "DD"'
p889
(dp890
g42
F0.0
sg48
F0.0
ssS'"U" "K" "O"'
p891
(dp892
g26
F0.0
sg18
F0.0
ssS'"K" "U" "U"'
p893
(dp894
g36
F0.0
sg18
F0.0
ssS'"N" "A" "M"'
p895
(dp896
g48
F0.0
ssS'"N" "O" "O"'
p897
(dp898
g52
F0.0
sg51
F0.0
ssS'"O" "SH"'
p899
(dp900
g35
F0.0
sg76
F0.0
ssS'"O" "JJ"'
p901
(dp902
g35
F0.0
ssS'"E" "R" "U"'
p903
(dp904
g46
F4.355754916210076e-34
sg6
F7.850238625126366e-41
sg44
F0.0
sg8
F1.098606651543727e-138
ssS'"E" "B"'
p905
(dp906
g44
F0.0
sg14
F0.0
sg36
F2.1771744370918437e-157
sg34
F3.177529928274822e-148
sg7
F0.0
sg11
F0.0
ssS'"R" "E" "TT"'
p907
(dp908
g42
F0.0
sg44
F0.0
ssS'"E" "P" "A"'
p909
(dp910
g15
F0.0
ssS'"SH" "I" "N"'
p911
(dp912
g26
F0.0
ssS'"U" "Z" "A"'
p913
(dp914
g43
F2.328879090715716e-283
ssS'"I" "R"'
p915
(dp916
g39
F0.0
sg31
F0.0
sg14
F5.594389605632426e-231
sg42
F0.0
sg6
F7.464146395315397e-114
sg11
F0.0
sg46
F6.981284299110437e-41
sg8
F1.1755073759339186e-120
ssS'"B" "O" "E"'
p917
(dp918
g34
F0.0
ssS'"E" "DD" "O"'
p919
(dp920
g49
F0.0
ssS'"R" "U"'
p921
(dp922
g51
F3.3277186746033835e-252
sg44
F0.0
sg18
F0.0
sg49
F0.0
sg50
F0.0
sg14
F0.0
sg6
F1.0553657699298754e-100
sg41
F0.0
sg42
F0.0
sg43
F0.0
sg48
F0.0
sg59
F1.312074171946469e-144
sg35
F0.0
sg46
F9.675320485595166e-23
sg8
F0.09767982720474104
ssS'"O" "B" "A"'
p923
(dp924
g34
F1.7202879646062214e-219
sg36
F1.4710887555297058e-230
ssS'"A" "A" "M"'
p925
(dp926
g35
F0.0
sg46
F0.0
sg6
F0.0
ssS'"N"'
p927
(dp928
g138
F0.0
sg39
F0.0
sg15
F0.0
sg41
F0.0
sg42
F0.0
sg43
F0.0
sg6
F0.0
sg11
F0.0
sg44
F0.0
sg46
F0.0
sg47
F0.0
sg48
F4.310705773791589e-245
sg49
F0.0
sg50
F0.0
sg31
F0.0
sg36
F0.0
sg225
F0.0
sg52
F1.0
sg226
F0.9997172707569831
sg131
F0.0
sg21
F7.011381471501226e-16
sg51
F0.0
sg14
F0.0
sg87
F0.0
sg7
F0.0
sg35
F2.5424900180379814e-253
ssS'"U" "U" "T" "O"'
p929
(dp930
g59
F0.0
ssS'"K" "I" "R"'
p931
(dp932
g14
F0.0
ssS'"A" "I" "R"'
p933
(dp934
g31
F0.0
sg44
F0.0
sg46
F0.0
ssS'"T" "E" "TCH"'
p935
(dp936
g14
F0.0
ssS'"I" "K" "I"'
p937
(dp938
g18
F3.00377027986562e-127
ssS'"N" "D" "O"'
p939
(dp940
g49
F0.0
ssS'"R" "O" "R"'
p941
(dp942
g46
F0.0
ssS'"W" "A" "I"'
p943
(dp944
g31
F0.0
sg87
F0.0
ssS'"I" "CH" "I"'
p945
(dp946
g225
F7.851786624775588e-104
ssS'"I"'
p947
(dp948
g39
F7.798726947423854e-158
sg40
F0.0
sg15
F0.0
sg41
F0.0
sg42
F3.897042907566954e-19
sg43
F3.0344832225330793e-113
sg6
F0.0
sg11
F5.809653792063511e-12
sg76
F0.0
sg34
F0.0
sg59
F0.0
sg7
F3.629893994939561e-282
sg203
F0.0
sg46
F3.25e-320
sg120
F0.0
sg47
F7.891943369745023e-210
sg44
F5.032025665672375e-228
sg49
F2.1177206856561696e-114
sg50
F0.0
sg36
F0.0
sg224
F0.0
sg225
F0.0
sg52
F0.0
sg226
F0.0
sg131
F3.3432644928111913e-13
sg8
F0.0
sg21
F0.0
sg31
F1.1828020159961536e-21
sg18
F0.0
sg14
F1.0
sg87
F3.598042698124433e-133
sg48
F0.0
sg35
F0.0
sg26
F0.0
ssS'"I" "PP"'
p949
(dp950
g42
F0.0
sg14
F0.0
ssS'"U" "CH" "Y"'
p951
(dp952
g225
F0.0
ssS'"K" "O" "TCH"'
p953
(dp954
g35
F0.0
ssS'"D" "A" "S"'
p955
(dp956
g49
F0.0
ssS'"TS" "U" "R"'
p957
(dp958
g59
F0.0
ssS'"O" "W"'
p959
(dp960
g87
F2.7137207409277427e-31
ssS'"A" "R"'
p961
(dp962
g7
F0.0
sg50
F0.0
sg14
F0.0
sg44
F6.066735418802862e-146
sg46
F7.591351902583733e-35
sg42
F0.0
sg48
F1.9181956640932964e-134
sg6
F2.3601324943428205e-30
sg35
F0.0
sg11
F0.0
sg8
F9.023221667563507e-40
ssS'"H" "E" "I"'
p963
(dp964
g119
F0.0
sg120
F0.0
ssS'"M" "U" "Z"'
p965
(dp966
g21
F9.099040477744704e-162
ssS'"B" "A" "KK"'
p967
(dp968
g36
F0.0
ssS'"O" "O" "N"'
p969
(dp970
g52
F0.0
sg51
F0.0
ssS'"Z" "A"'
p971
(dp972
g42
F0.0
sg45
F1.824075971406126e-191
sg43
F5.34626329471158e-203
sg26
F1.8154896051799335e-246
sg6
F0.0
ssS'"M" "A" "TCH"'
p973
(dp974
g21
F0.0
ssS'"B" "U"'
p975
(dp976
g42
F0.0
sg49
F0.0
sg36
F6.480241983124296e-12
sg34
F1.3337560325198868e-08
sg43
F0.0
sg35
F0.0
ssS'"I" "Y"'
p977
(dp978
g14
F1.8336540792717981e-44
sg11
F6.47223700503918e-73
sg131
F0.0
sg31
F0.0
ssS'"A" "R" "U"'
p979
(dp980
g42
F0.0
sg35
F0.0
sg46
F2.8030698358965924e-45
sg48
F0.0
sg8
F5.71729242083947e-43
ssS'"GG"'
p981
(dp982
g40
F6.369629682022159e-31
sg44
F0.0
sg50
F0.0
sg14
F0.0
sg42
F0.0
sg48
F0.0
sg35
F0.0
ssS'"U" "D" "A"'
p983
(dp984
g49
F0.0
ssS'"N" "U" "A"'
p985
(dp986
g52
F8.285222015652618e-78
ssS'"U" "N"'
p987
(dp988
g138
F0.0
sg42
F0.0
sg41
F0.0
sg52
F1.78732410319919e-40
ssS'"CH" "Y" "A"'
p989
(dp990
g225
F6.783243059167625e-208
ssS'"D" "I"'
p991
(dp992
g42
F0.0
sg11
F0.0
sg14
F0.0
sg49
F1.1525315685508966e-103
ssS'"KK" "I"'
p993
(dp994
g18
F5.81525914480301e-33
ssS'"O" "TS"'
p995
(dp996
g59
F0.0
ssS'"T" "A" "S"'
p997
(dp998
g59
F0.0
ssS'"TS" "U"'
p999
(dp1000
g43
F3.323878213632261e-36
sg26
F0.0
sg59
F3.6651536004273815e-25
ssS'"A" "I"'
p1001
(dp1002
g31
F1.0
sg44
F0.0
sg49
F0.0
sg43
F0.0
sg48
F0.0
sg52
F0.0
sg7
F2.7668179155230176e-23
sg46
F0.0
sg26
F0.0
ssS'"O" "T" "A"'
p1003
(dp1004
g59
F3.84706551011715e-223
ssS'"U" "U" "K"'
p1005
(dp1006
g3
F0.0
ssS'"U" "A" "A"'
p1007
(dp1008
g6
F1.2953845711743689e-111
ssS'"I" "D" "E"'
p1009
(dp1010
g49
F7.881504965745925e-276
ssS'"S" "U" "U"'
p1011
(dp1012
g26
F0.0
ssS'"I" "I" "CH"'
p1013
(dp1014
g11
F0.0
ssS'"A" "SH" "I"'
p1015
(dp1016
g76
F0.0
sg203
F1.0673760570724316e-299
ssS'"W" "E" "E"'
p1017
(dp1018
g87
F0.0
sg7
F1.3473186534814485e-186
ssS'"A" "A" "CH"'
p1019
(dp1020
g35
F0.0
sg6
F0.0
ssS'"R" "U" "S"'
p1021
(dp1022
g8
F0.0
ssS'"O" "H" "I"'
p1023
(dp1024
g120
F1.1330731540246768e-124
ssS'"O" "U" "R"'
p1025
(dp1026
g51
F0.0
ssS'"A" "A" "B"'
p1027
(dp1028
g6
F0.0
ssS'"U" "N" "D"'
p1029
(dp1030
g52
F0.0
ssS'"A" "TCH"'
p1031
(dp1032
g42
F0.0
sg48
F0.0
ssS'"E" "K" "I"'
p1033
(dp1034
g18
F8.946194818187275e-147
ssS'"A" "KK" "I"'
p1035
(dp1036
g18
F0.0
ssS'"O" "M" "U"'
p1037
(dp1038
g21
F1.0937260279184469e-29
ssS'"N" "Z"'
p1039
(dp1040
g52
F2.443938254911813e-160
sg49
F0.0
ssS'"GG" "A"'
p1041
(dp1042
g40
F7.07682365173644e-220
ssS'"N" "O"'
p1043
(dp1044
g42
F0.0
sg51
F0.0
sg35
F0.0
sg52
F1.3160453176034845e-40
ssS'"M"'
p1045
(dp1046
g21
F0.9997018062271152
sg51
F0.0
sg7
F0.0
sg14
F0.0
sg44
F0.0
sg41
F0.0
sg36
F0.0
sg46
F0.0
sg42
F0.0
sg48
F0.0
sg6
F0.0
sg31
F0.0
sg35
F0.0
sg11
F0.0
sg8
F0.0
ssS'"T" "O"'
p1047
(dp1048
g51
F0.0
sg50
F0.0
sg42
F0.0
sg59
F0.040519491083796925
sg35
F0.0
sg203
F4.383797006050747e-217
sg26
F0.0
ssS'"Y" "O" "N"'
p1049
(dp1050
g52
F0.0
sg35
F0.0
ssS'"A" "G"'
p1051
(dp1052
g40
F0.0
sg7
F0.0
sg42
F0.0
sg48
F0.0
sg35
F0.0
sg46
F0.0
ssS'"O" "R" "A"'
p1053
(dp1054
g42
F0.0
sg46
F9.415288772167245e-218
sg8
F2.7478215113168356e-229
ssS'"P" "I"'
p1055
(dp1056
g14
F0.0
sg15
F1.3668457194898282e-108
ssS'"O" "M"'
p1057
(dp1058
g21
F4.353863768641611e-29
sg51
F0.0
sg42
F0.0
sg6
F0.0
sg35
F0.0
sg46
F0.0
ssS'"E" "Y"'
p1059
(dp1060
g42
F0.0
sg7
F7.417781591177816e-36
ssS'"O" "D" "O"'
p1061
(dp1062
g49
F1.1225536321980795e-27
ssS'"B" "O" "R"'
p1063
(dp1064
g34
F0.0
sg36
F0.0
ssS'"I" "T" "E"'
p1065
(dp1066
g59
F0.0
ssS'"P" "I" "TCH"'
p1067
(dp1068
g15
F0.0
ssS'"Y" "A" "TS"'
p1069
(dp1070
g6
F0.0
ssS'"P" "A" "W"'
p1071
(dp1072
g15
F0.0
ssS'"A" "A" "P"'
p1073
(dp1074
g46
F0.0
ssS'"A" "T" "O"'
p1075
(dp1076
g48
F0.0
sg59
F9.191527223117929e-223
ssS'"W" "O"'
p1077
(dp1078
g87
F1.347916417985269e-22
ssS'"S" "A" "W"'
p1079
(dp1080
g26
F0.0
ssS'"O" "B"'
p1081
(dp1082
g51
F0.0
sg34
F5.941465123631094e-30
sg50
F0.0
sg36
F1.0547101959703884e-38
sg42
F0.0
sg35
F0.0
ssS'"R" "O" "O"'
p1083
(dp1084
g50
F1.0572856004381228e-128
sg51
F0.0
sg46
F0.0
sg8
F0.0
ssS'"Y" "U" "R"'
p1085
(dp1086
g41
F0.0
sg3
F0.0
ssS'"A" "U" "N"'
p1087
(dp1088
g138
F0.0
sg52
F0.0
ssS'"R" "U" "T" "O"'
p1089
(dp1090
g203
F0.0
ssS'"K" "A" "DD"'
p1091
(dp1092
g42
F0.0
ssS'"H" "A" "KK"'
p1093
(dp1094
g120
F0.0
ssS'"I" "R" "E"'
p1095
(dp1096
g46
F0.0
sg8
F0.0
ssS'"G" "O" "R"'
p1097
(dp1098
g40
F0.0
ssS'"N" "P" "U"'
p1099
(dp1100
g15
F0.0
ssS'"I" "I" "S" "U"'
p1101
(dp1102
g11
F0.0
ssS'"E" "A" "A"'
p1103
(dp1104
g14
F0.0
sg46
F0.0
ssS'"R" "I" "E"'
p1105
(dp1106
g6
F0.0
ssS'"SH" "Y" "A"'
p1107
(dp1108
g42
F0.0
sg76
F8.932607136990254e-202
ssS'"A" "I" "K"'
p1109
(dp1110
g31
F0.0
ssS'"P" "O" "I"'
p1111
(dp1112
g15
F0.0
ssS'"N" "A" "I"'
p1113
(dp1114
g52
F0.0
ssS'"P" "O" "PP"'
p1115
(dp1116
g15
F0.0
ssS'"U" "J" "I"'
p1117
(dp1118
g47
F5.66286157069007e-24
ssS'"SS" "A"'
p1119
(dp1120
g26
F3.1002346827327572e-229
ssS'"O" "I" "S"'
p1121
(dp1122
g39
F0.0
ssS'"I" "N"'
p1123
(dp1124
g39
F0.0
sg31
F0.0
sg14
F0.0
sg47
F0.0
sg87
F0.0
sg225
F0.0
sg7
F0.0
sg52
F4.50163052133081e-116
sg11
F0.0
sg226
F0.0
ssS'"P" "A" "HH"'
p1125
(dp1126
g15
F0.0
ssS'"O" "CH"'
p1127
(dp1128
g51
F0.0
sg46
F0.0
ssS'"I" "K" "U"'
p1129
(dp1130
g18
F2.089551809759965e-113
ssS'"O" "K" "E"'
p1131
(dp1132
g18
F3.2731875008319186e-163
ssS'"R" "A" "KK"'
p1133
(dp1134
g42
F0.0
sg48
F0.0
ssS'"I" "S" "A"'
p1135
(dp1136
g203
F1.0673760570724315e-299
ssS'"SH" "I" "H"'
p1137
(dp1138
g76
F0.0
ssS'"U" "T" "O"'
p1139
(dp1140
g203
F0.0
sg59
F3.267373808327405e-14
ssS'"I" "B" "I"'
p1141
(dp1142
g34
F0.0
ssS'"E" "I" "D"'
p1143
(dp1144
g7
F0.0
ssS'"E" "TT" "O"'
p1145
(dp1146
g59
F0.0
ssS'"O" "SSH"'
p1147
(dp1148
g35
F0.0
ssS'"E" "M" "E"'
p1149
(dp1150
g44
F0.0
ssS'"P" "Y" "U"'
p1151
(dp1152
g15
F3.8878198681289616e-105
ssS'"A" "I" "Y"'
p1153
(dp1154
g31
F1.0556586501660705e-28
ssS'"SH" "Y" "O"'
p1155
(dp1156
g76
F4.801892187293439e-23
ssS'"U" "S" "A" "I"'
p1157
(dp1158
g31
F0.0
ssS'"S" "U" "M"'
p1159
(dp1160
g26
F0.0
ssS'"A" "H" "A"'
p1161
(dp1162
g120
F0.0
ssS'"U" "U" "P"'
p1163
(dp1164
g35
F0.0
sg41
F0.0
ssS'"U" "E"'
p1165
(dp1166
g42
F0.0
sg87
F8.554837557290444e-201
sg41
F0.0
sg44
F0.0
ssS'"H" "O" "S"'
p1167
(dp1168
g119
F0.0
ssS'"T" "A" "A"'
p1169
(dp1170
g42
F0.0
sg6
F6.18806704532278e-73
sg59
F0.0
ssS'"O" "W" "E"'
p1171
(dp1172
g87
F1.0721658829034334e-150
ssS'"M" "Y"'
p1173
(dp1174
g21
F2.1097659930216344e-35
ssS'"N" "H"'
p1175
(dp1176
g21
F0.0
ssS'"R" "U" "J"'
p1177
(dp1178
g8
F0.0
ssS'"B" "I" "I"'
p1179
(dp1180
g34
F0.0
sg11
F0.0
sg36
F0.0
ssS'"R" "A" "B"'
p1181
(dp1182
g42
F0.0
sg48
F0.0
ssS'"E" "E" "B"'
p1183
(dp1184
g7
F0.0
ssS'"DD"'
p1185
(dp1186
g44
F0.0
sg49
F1.4578037399747664e-34
sg14
F0.0
sg42
F0.0
sg3
F0.0
sg48
F0.0
sg35
F0.0
ssS'"H" "U" "R"'
p1187
(dp1188
g120
F0.0
ssS'"S" "O"'
p1189
(dp1190
g42
F0.0
sg35
F0.0
sg26
F7.124123035671925e-28
ssS'"Y" "A" "A"'
p1191
(dp1192
g35
F0.0
sg6
F7.843677980154823e-35
ssS'"U" "B" "U"'
p1193
(dp1194
g34
F1.395307747404722e-31
sg36
F1.7589394705090543e-48
ssS'"U" "R"'
p1195
(dp1196
g138
F0.0
sg51
F0.0
sg44
F0.0
sg18
F0.0
sg50
F0.0
sg41
F0.0
sg40
F0.0
sg42
F0.0
sg3
F2.087836700234634e-27
sg6
F4.73680229383261e-254
sg11
F0.0
sg46
F2.0174247727837745e-08
sg8
F9.378965641867745e-12
ssS'"K" "A"'
p1197
(dp1198
g42
F0.0
sg87
F0.0
sg18
F1.369061154575899e-42
ssS'"M" "O"'
p1199
(dp1200
g21
F1.7589508196734227e-39
sg42
F0.0
sg35
F0.0
ssS'"T" "E" "E"'
p1201
(dp1202
g7
F0.0
sg59
F0.0
ssS'"E" "I" "M"'
p1203
(dp1204
g7
F0.0
ssS'"J" "Y" "A"'
p1205
(dp1206
g47
F1.7347628976112162e-216
sg224
F2.0558681452762115e-189
ssS'"R" "E" "DD"'
p1207
(dp1208
g44
F0.0
ssS'"I" "TT" "O"'
p1209
(dp1210
g59
F0.0
ssS'"O" "T"'
p1211
(dp1212
g51
F0.0
sg50
F0.0
sg42
F0.0
sg59
F5.061278082417531e-28
sg35
F0.0
sg46
F0.0
ssS'"A" "N" "G"'
p1213
(dp1214
g42
F0.0
sg48
F0.0
ssS'"Y" "O" "TT"'
p1215
(dp1216
g35
F0.0
ssS'"J" "Y" "O"'
p1217
(dp1218
g47
F1.4120075064869783e-17
ssS'"TTS"'
p1219
(dp1220
g41
F0.0
sg59
F0.0
ssS'"Y" "U" "U" "S"'
p1221
(dp1222
g41
F5.923239561100177e-157
ssS'"A" "A" "SH"'
p1223
(dp1224
g6
F0.0
ssS'"J" "I"'
p1225
(dp1226
g47
F0.18444521254518378
sg49
F6.164526762057937e-133
sg14
F0.0
sg42
F0.0
sg224
F5.057559885874062e-15
sg43
F2.905935092529806e-101
sg11
F0.0
sg26
F1.9380526490787496e-127
ssS'"G" "U" "U"'
p1227
(dp1228
g40
F0.0
ssS'"A" "I" "Y" "A"'
p1229
(dp1230
g31
F4.774882548767976e-218
ssS'"E" "Z" "A"'
p1231
(dp1232
g43
F0.0
ssS'"E" "O"'
p1233
(dp1234
g14
F2.994681265019897e-166
sg35
F1.9300069212166882e-153
sg11
F0.0
sg7
F0.0
ssS'"E" "SH"'
p1235
(dp1236
g76
F0.0
sg26
F1.0872301230938725e-161
sg7
F0.0
ssS'"P" "I" "I"'
p1237
(dp1238
g15
F0.0
ssS'"E" "Y" "O"'
p1239
(dp1240
g42
F4.047070021920672e-164
ssS'"K" "U" "R"'
p1241
(dp1242
g18
F1.1788844359863806e-144
ssS'"A" "A" "CH" "I"'
p1243
(dp1244
g225
F0.0
ssS'"Y" "A" "I"'
p1245
(dp1246
g31
F7.787464984275345e-44
ssS'"O" "BB" "U"'
p1247
(dp1248
g36
F0.0
ssS'"E" "E" "Z"'
p1249
(dp1250
g7
F6.646898248279584e-160
ssS'"N" "T" "O"'
p1251
(dp1252
g59
F0.0
ssS'"NN" "U"'
p1253
(dp1254
g52
F1.998062154741123e-54
ssS'"D" "I" "SSH"'
p1255
(dp1256
g49
F0.0
ssS'"W" "A"'
p1257
(dp1258
g138
F0.0
sg119
F0.0
sg31
F0.0
sg42
F0.0
sg87
F3.4585721204550253e-205
sg6
F0.0
sg35
F7.926022185657127e-185
ssS'"U" "SSH" "Y"'
p1259
(dp1260
g3
F0.0
ssS'"U"'
p1261
(dp1262
g138
F6.954730709893783e-146
sg40
F5.018844688061491e-200
sg15
F0.0
sg41
F6.641412451221363e-09
sg42
F5.043944286048056e-23
sg43
F2.3278576995295123e-14
sg6
F0.0
sg11
F5.777295258855103e-72
sg76
F0.0
sg45
F0.0
sg34
F0.0
sg59
F2.7552939517574515e-35
sg7
F1.8201061343699175e-306
sg203
F0.0
sg46
F0.0
sg120
F0.0
sg47
F0.0
sg44
F0.0
sg49
F1.0841647174445756e-28
sg50
F1.4778009029757188e-31
sg36
F0.0
sg225
F0.0
sg3
F0.9999997168742989
sg52
F0.0
sg226
F0.0
sg131
F0.0
sg8
F1.8353744686348203e-196
sg21
F0.0
sg51
F4.264015082089655e-46
sg18
F0.0
sg14
F1.513897844457454e-104
sg31
F0.0
sg87
F7.24491579066747e-14
sg48
F0.0
sg35
F0.0
sg26
F2.349433341119425e-34
ssS'"B" "E" "A"'
p1263
(dp1264
g36
F0.0
ssS'"T" "O" "PP"'
p1265
(dp1266
g35
F0.0
sg59
F0.0
ssS'"O" "P"'
p1267
(dp1268
g50
F0.0
sg51
F0.0
sg15
F5.33930107098903e-50
sg35
F0.0
ssS'"A" "A" "N"'
p1269
(dp1270
g52
F0.0
sg6
F0.0
ssS'"SH" "I" "KK"'
p1271
(dp1272
g26
F0.0
ssS'"A" "SS"'
p1273
(dp1274
g42
F0.0
sg48
F0.0
ssS'"Z" "O"'
p1275
(dp1276
g43
F2.072243088430778e-30
ssS'"R" "A" "G"'
p1277
(dp1278
g42
F0.0
ssS'"O" "GG"'
p1279
(dp1280
g50
F0.0
sg35
F0.0
ssS'"B" "E" "S"'
p1281
(dp1282
g34
F0.0
sg36
F0.0
ssS'"H" "A"'
p1283
(dp1284
g119
F6.391678741501e-66
sg42
F0.0
sg120
F7.006885340119377e-37
sg6
F0.0
ssS'"N" "G" "A"'
p1285
(dp1286
g226
F9.327414822326139e-213
ssS'"N" "I" "N"'
p1287
(dp1288
g52
F0.0
ssS'"T" "A" "W"'
p1289
(dp1290
g59
F0.0
ssS'"O" "NN"'
p1291
(dp1292
g42
F0.0
sg35
F0.0
ssS'"A" "N" "U"'
p1293
(dp1294
g48
F0.0
ssS'"K" "O" "O"'
p1295
(dp1296
g18
F0.0
ssS'"SH"'
p1297
(dp1298
g76
F0.01603544184760372
sg7
F0.0
sg18
F3.138199370486579e-144
sg41
F0.0
sg46
F0.0
sg42
F0.0
sg43
F0.0
sg48
F0.0
sg52
F0.0
sg35
F0.0
sg203
F3.82928481748163e-13
sg11
F0.0
sg26
F1.3882400767316592e-20
ssS'"J"'
p1299
(dp1300
g39
F0.0
sg47
F0.00017447354817631266
sg7
F0.0
sg49
F2.440451552225742e-31
sg14
F0.0
sg44
F0.0
sg46
F0.0
sg42
F0.0
sg224
F5.856815311231094e-20
sg43
F5.155051314197395e-14
sg48
F0.0
sg6
F0.0
sg52
F0.0
sg35
F0.0
sg11
F0.0
sg26
F1.5526113915167075e-39
sg8
F0.0
ssS'"Y" "U" "N"'
p1301
(dp1302
g41
F0.0
ssS'"G" "E" "S"'
p1303
(dp1304
g40
F0.0
ssS'"R" "O" "GG"'
p1305
(dp1306
g35
F0.0
ssS'"M" "Y" "U"'
p1307
(dp1308
g21
F5.46249249661416e-103
ssS'"I" "G"'
p1309
(dp1310
g31
F0.0
sg14
F0.0
sg11
F0.0
sg40
F2.1793742904909363e-120
ssS'"PP" "I"'
p1311
(dp1312
g15
F7.436705384640533e-114
ssS'"Y" "U" "U" "Z"'
p1313
(dp1314
g41
F6.24221921892581e-174
ssS'"A" "U"'
p1315
(dp1316
g138
F0.9999999999993245
sg50
F1.0723177272615362e-22
sg36
F0.0
ssS'"K" "A" "H"'
p1317
(dp1318
g18
F0.0
ssS'"GG" "U" "S"'
p1319
(dp1320
g40
F4.16855399103725e-157
ssS'"A" "TS"'
p1321
(dp1322
g35
F5.739495142550891e-160
sg46
F0.0
sg6
F0.0
ssS'"E" "P" "U"'
p1323
(dp1324
g15
F1.0482258098558164e-149
sg44
F0.0
ssS'"N" "I" "I"'
p1325
(dp1326
g52
F0.0
sg11
F0.0
ssS'"N" "Y" "U"'
p1327
(dp1328
g52
F4.9006005312028644e-113
ssS'"A" "TS" "U"'
p1329
(dp1330
g59
F0.0
ssS'"SSH" "Y"'
p1331
(dp1332
g76
F1.2483104939534286e-10
sg14
F0.0
sg42
F0.0
sg225
F0.0
sg3
F0.0
sg48
F0.0
sg35
F0.0
ssS'"I" "D" "O"'
p1333
(dp1334
g49
F1.413167322664242e-109
sg59
F1.6550717826228123e-113
ssS'"R" "I" "Y"'
p1335
(dp1336
g46
F0.0
ssS'"E" "B" "A"'
p1337
(dp1338
g34
F0.0
sg36
F0.0
ssS'"D" "I" "S"'
p1339
(dp1340
g49
F0.0
ssS'"U" "I"'
p1341
(dp1342
g14
F6.618257387912817e-202
sg11
F3.855118013354947e-39
sg41
F0.0
sg87
F6.09065359773374e-116
ssS'"JJ"'
p1343
(dp1344
g47
F7.122221077577518e-57
sg44
F0.0
sg14
F0.0
sg42
F0.0
sg48
F0.0
sg35
F0.0
ssS'"R" "I" "A"'
p1345
(dp1346
g46
F0.0
ssS'"T" "A" "N"'
p1347
(dp1348
g59
F0.0
ssS'"W" "A" "KK"'
p1349
(dp1350
g87
F0.0
ssS'"W" "A" "PP"'
p1351
(dp1352
g35
F0.0
ssS'"A" "A" "Z"'
p1353
(dp1354
g35
F0.0
sg46
F0.0
ssS'"E" "E" "H"'
p1355
(dp1356
g11
F0.0
sg7
F0.0
ssS'"U" "N" "O"'
p1357
(dp1358
g52
F2.9163305677006185e-83
ssS'"I" "NN"'
p1359
(dp1360
g14
F0.0
ssS'"E" "S" "U"'
p1361
(dp1362
g203
F0.0
sg43
F0.0
sg26
F9.265547886194602e-141
sg7
F0.0
sg44
F0.0
ssS'"R" "U" "PP"'
p1363
(dp1364
g42
F0.0
ssS'"A" "PP" "I"'
p1365
(dp1366
g42
F0.0
ssS'"U" "T" "E"'
p1367
(dp1368
g59
F5.281051314431793e-184
ssS'"P" "U"'
p1369
(dp1370
g120
F4.49478208502734e-188
sg15
F4.039872149462413e-09
sg44
F0.0
sg14
F0.0
sg41
F0.0
sg42
F0.0
sg26
F0.0
ssS'"O" "A"'
p1371
(dp1372
g51
F3.5321471159681014e-40
sg46
F0.0
sg6
F9.244358100384035e-48
ssS'"P" "U" "S" "A"'
p1373
(dp1374
g26
F2.4938116972218442e-226
ssS'"R" "E" "Y"'
p1375
(dp1376
g8
F0.0
ssS'"E" "SS"'
p1377
(dp1378
g44
F0.0
ssS'"B" "I" "R"'
p1379
(dp1380
g36
F0.0
ssS'"K" "Y" "A"'
p1381
(dp1382
g18
F0.0
ssS'"U" "W"'
p1383
(dp1384
g87
F3.337360043805807e-58
ssS'"A" "A" "R" "U"'
p1385
(dp1386
g35
F0.0
ssS'"A" "W" "A" "A"'
p1387
(dp1388
g6
F0.0
ssS'"N" "TS"'
p1389
(dp1390
g52
F0.0
ssS'"K" "I" "M"'
p1391
(dp1392
g14
F0.0
ssS'"R" "Y" "U"'
p1393
(dp1394
g8
F1.8474629872942298e-125
ssS'"I" "P" "A"'
p1395
(dp1396
g15
F2.84981542955e-313
ssS'"I" "E" "TT"'
p1397
(dp1398
g42
F0.0
ssS'"B" "O" "O"'
p1399
(dp1400
g34
F0.0
sg51
F0.0
sg36
F0.0
ssS'"A" "K" "I"'
p1401
(dp1402
g18
F1.6100096e-316
ssS'"M" "A" "R"'
p1403
(dp1404
g21
F0.0
sg35
F0.0
ssS'"U" "M" "U"'
p1405
(dp1406
g21
F5.6780960972421225e-30
ssS'"E" "JJ"'
p1407
(dp1408
g42
F0.0
sg44
F0.0
sg14
F0.0
ssS'"I" "H" "U"'
p1409
(dp1410
g14
F0.0
sg120
F1.2973514860460665e-110
ssS'"I" "A" "R"'
p1411
(dp1412
g11
F0.0
ssS'"U" "K" "U"'
p1413
(dp1414
g11
F0.0
sg41
F0.0
sg18
F1.3726005001888016e-24
ssS'"E" "T"'
p1415
(dp1416
g44
F0.0
sg51
F0.0
sg11
F0.0
sg7
F0.0
sg59
F3.135356549970749e-158
ssS'"S" "E" "N"'
p1417
(dp1418
g26
F0.0
ssS'"O" "H"'
p1419
(dp1420
g50
F0.0
sg42
F0.0
sg51
F0.0
sg35
F0.0
sg120
F3.07910759780536e-38
ssS'"U" "TS" "U"'
p1421
(dp1422
g59
F1.9048096242043043e-105
ssS'"R" "A" "N"'
p1423
(dp1424
g46
F0.0
sg8
F0.0
ssS'"U" "I" "I"'
p1425
(dp1426
g87
F0.0
ssS'"I" "J"'
p1427
(dp1428
g39
F0.0
sg47
F2.3488781810066938e-292
sg49
F0.0
sg14
F0.0
sg43
F1.9409183637416412e-113
sg11
F0.0
ssS'"M" "A" "U"'
p1429
(dp1430
g21
F0.0
ssS'"U" "N" "J"'
p1431
(dp1432
g52
F0.0
ssS'"M" "I" "P"'
p1433
(dp1434
g21
F0.0
ssS'"CH" "Y" "U" "U"'
p1435
(dp1436
g41
F0.0
sg59
F0.0
ssS'"I" "N" "I"'
p1437
(dp1438
g14
F0.0
ssS'"E" "CH"'
p1439
(dp1440
g44
F0.0
ssS'"SS" "O"'
p1441
(dp1442
g26
F1.219516826982691e-40
ssS'"Y" "U" "E"'
p1443
(dp1444
g41
F0.0
ssS'"G" "I" "R"'
p1445
(dp1446
g40
F0.0
ssS'"O" "K" "I"'
p1447
(dp1448
g18
F1.443470457941244e-129
ssS'"A" "U" "R"'
p1449
(dp1450
g138
F0.0
sg50
F0.0
ssS'"T" "O" "O"'
p1451
(dp1452
g51
F0.0
sg59
F0.0
ssS'"N" "T" "A"'
p1453
(dp1454
g52
F3.240300168686103e-267
ssS'"R" "A" "SSH"'
p1455
(dp1456
g46
F0.0
ssS'"I" "I" "R"'
p1457
(dp1458
g14
F2.312578998878832e-145
sg11
F0.0
ssS'"B" "A" "S"'
p1459
(dp1460
g36
F0.0
ssS'"U" "U" "S"'
p1461
(dp1462
g41
F5e-324
ssS'"R" "I" "H"'
p1463
(dp1464
g8
F0.0
ssS'"P" "O" "S"'
p1465
(dp1466
g15
F0.0
ssS'"Y" "A" "N" "G"'
p1467
(dp1468
g48
F0.0
ssS'"P" "A" "TT"'
p1469
(dp1470
g35
F0.0
ssS'"U" "D" "I"'
p1471
(dp1472
g49
F8.135302683499143e-193
ssS'"J" "I" "O"'
p1473
(dp1474
g47
F0.0
ssS'"BB"'
p1475
(dp1476
g35
F0.0
ssS'"A" "DD"'
p1477
(dp1478
g42
F0.0
sg48
F0.0
ssS'"S" "A" "SSH"'
p1479
(dp1480
g26
F0.0
ssS'"K" "I" "TT"'
p1481
(dp1482
g14
F0.0
ssS'"R" "I" "DD"'
p1483
(dp1484
g14
F0.0
ssS'"R" "U" "N"'
p1485
(dp1486
g52
F0.0
ssS'"A" "GG" "U"'
p1487
(dp1488
g40
F0.0
sg48
F0.0
ssS'"G" "I" "I"'
p1489
(dp1490
g11
F7.215271862385889e-42
ssS'"I" "KK"'
p1491
(dp1492
g14
F0.0
sg11
F0.0
ssS'"W" "O" "R"'
p1493
(dp1494
g87
F0.0
ssS'"O" "T" "O"'
p1495
(dp1496
g203
F8.719337482296096e-28
sg59
F4.545805793013335e-32
ssS'"H" "E" "R"'
p1497
(dp1498
g119
F0.0
sg120
F0.0
ssS'"N" "CH"'
p1499
(dp1500
g52
F0.0
ssS'"O" "SSH" "Y"'
p1501
(dp1502
g35
F0.0
ssS'"E" "I" "O"'
p1503
(dp1504
g7
F0.0
ssS'"A" "G" "U"'
p1505
(dp1506
g40
F0.0
ssS'"TCH" "Y"'
p1507
(dp1508
g14
F0.0
sg35
F0.0
sg225
F8.491493649262303e-22
ssS'"U" "E" "TT"'
p1509
(dp1510
g44
F0.0
ssS'"O" "N" "G"'
p1511
(dp1512
g50
F0.0
ssS'"K" "O" "S"'
p1513
(dp1514
g18
F0.0
ssS'"Y" "O" "B"'
p1515
(dp1516
g35
F0.0
ssS'"A" "Z" "A"'
p1517
(dp1518
g45
F1.12131627151557e-214
ssS'"A" "RR"'
p1519
(dp1520
g35
F0.0
ssS'"I" "R" "U"'
p1521
(dp1522
g14
F0.0
sg46
F6.877228268960356e-29
sg8
F4.156334325577742e-111
ssS'"A" "Z"'
p1523
(dp1524
g45
F4.6742171567218644e-26
sg42
F1.356944443060969e-165
sg43
F0.0
sg48
F4.6579356800854385e-169
sg35
F1.3792350473256471e-157
sg46
F0.0
ssS'"CH"'
p1525
(dp1526
g138
F0.0
sg51
F0.0
sg18
F0.0
sg6
F0.0
sg225
F1.5022526423303638e-07
sg48
F0.0
sg59
F1.0798411915042035e-61
sg52
F0.0
sg11
F0.0
sg203
F5.492663461427234e-218
sg46
F0.0
sg26
F1.9816605785647286e-125
ssS'"U" "E" "R"'
p1527
(dp1528
g42
F0.0
ssS'"U" "U" "Z" "U"'
p1529
(dp1530
g43
F0.0
ssS'"A" "R" "E"'
p1531
(dp1532
g6
F0.0
ssS'"A" "SSH" "Y"'
p1533
(dp1534
g42
F0.0
sg48
F0.0
ssS'"E" "J"'
p1535
(dp1536
g42
F0.0
sg44
F0.0
sg7
F0.0
sg43
F2.1770238862909472e-147
ssS'"CH" "I"'
p1537
(dp1538
g225
F0.02859198264201504
sg59
F5.142820442633085e-160
sg11
F0.0
sg203
F0.0
sg46
F0.0
sg26
F1.4664463849755428e-288
ssS'"K" "A" "SH"'
p1539
(dp1540
g18
F0.0
ssS'"N" "U"'
p1541
(dp1542
g52
F1.3796137133588286e-103
sg11
F0.0
sg48
F0.0
ssS'"SH" "I" "A"'
p1543
(dp1544
g26
F0.0
ssS'"A" "I" "G"'
p1545
(dp1546
g31
F0.0
ssS'"R" "A" "A"'
p1547
(dp1548
g6
F0.0
sg8
F0.0
ssS'"A" "A" "R" "U" "Z"'
p1549
(dp1550
g35
F0.0
ssS'"SH" "I" "I"'
p1551
(dp1552
g11
F0.0
sg76
F0.0
sg26
F0.0
ssS'"T" "A"'
p1553
(dp1554
g49
F1.3741330104618647e-85
sg59
F1.98525323960849e-89
sg42
F0.0
sg48
F0.0
sg6
F0.0
sg52
F0.0
sg35
F0.0
ssS'"U" "N" "T"'
p1555
(dp1556
g52
F0.0
ssS'"SH" "I"'
p1557
(dp1558
g11
F0.0
sg76
F8.641633200440288e-83
sg203
F9.08305200860469e-105
sg26
F3.4879516125443656e-111
ssS'"O" "K" "U" "S"'
p1559
(dp1560
g18
F0.0
ssS'"J" "Y" "A" "A"'
p1561
(dp1562
g47
F0.0
ssS'"E" "S"'
p1563
(dp1564
g44
F0.0
sg14
F7.668006947649715e-196
sg42
F0.0
sg7
F0.0
sg11
F4.897340320606416e-167
sg26
F1.2848812767389948e-161
ssS'"R" "E" "A"'
p1565
(dp1566
g44
F0.0
ssS'"W" "E"'
p1567
(dp1568
g138
F0.0
sg42
F0.0
sg87
F8.189890611819967e-132
sg7
F0.0
ssS'"P" "A" "A"'
p1569
(dp1570
g15
F0.0
sg6
F0.0
ssS'"G" "Y" "U"'
p1571
(dp1572
g40
F0.0
ssS'"A" "T" "A"'
p1573
(dp1574
g49
F0.0
sg59
F4.473626189954046e-237
ssS'"KK"'
p1575
(dp1576
g44
F0.0
sg18
F5.172602115924391e-16
sg14
F0.0
sg42
F0.0
sg3
F0.0
sg48
F0.0
sg35
F0.0
sg11
F0.0
ssS'"E" "A"'
p1577
(dp1578
g14
F2.1108261478187755e-65
sg44
F8.447978157971824e-37
sg46
F0.0
ssS'"D" "A" "K"'
p1579
(dp1580
g49
F0.0
ssS'"I" "TCH" "Y"'
p1581
(dp1582
g14
F0.0
ssS'"O" "S"'
p1583
(dp1584
g50
F8.5406e-319
sg51
F0.0
sg35
F3.4132802990855548e-164
sg26
F3.705423017961137e-74
sg46
F0.0
ssS'"U" "N" "A"'
p1585
(dp1586
g52
F0.0
ssS'"E" "SH" "I"'
p1587
(dp1588
g26
F4.000871114743308e-248
ssS'"A" "PP" "U"'
p1589
(dp1590
g15
F0.0
ssS'"E" "E" "T"'
p1591
(dp1592
g51
F0.0
sg11
F0.0
sg7
F0.0
ssS'"O" "U"'
p1593
(dp1594
g51
F2.9296541771055623e-25
ssS'"I" "I" "M"'
p1595
(dp1596
g11
F0.0
ssS'"N" "S" "U"'
p1597
(dp1598
g26
F0.0
ssS'"I" "HH" "U"'
p1599
(dp1600
g120
F0.0
ssS'"M" "I" "I"'
p1601
(dp1602
g21
F0.0
ssS'"O"'
p1603
(dp1604
g138
F4.2321890914743736e-23
sg39
F0.0
sg40
F1.4636867733191934e-200
sg15
F0.0
sg41
F0.0
sg42
F9.049665333654838e-13
sg43
F1.4881841688419618e-43
sg6
F1.0810418264996685e-285
sg11
F0.0
sg76
F0.0
sg34
F0.0
sg59
F0.0
sg203
F0.0
sg46
F5.842689547801631e-11
sg120
F0.0
sg47
F0.0
sg49
F0.0
sg50
F0.8056656011207842
sg36
F0.0
sg3
F6.968981404686387e-62
sg52
F0.0
sg226
F0.0
sg8
F0.0
sg21
F0.0
sg51
F0.11965024717207497
sg18
F0.0
sg14
F0.0
sg87
F2.1942303119477704e-37
sg7
F0.0
sg119
F2.1513728623825297e-164
sg35
F0.9696399886185223
sg26
F2.438332945402582e-33
ssS'"A" "A" "J"'
p1605
(dp1606
g46
F0.0
sg6
F0.0
ssS'"I" "S" "O"'
p1607
(dp1608
g26
F6.53612949452e-312
ssS'"W" "O" "TCH"'
p1609
(dp1610
g87
F0.0
ssS'"U" "R" "O"'
p1611
(dp1612
g46
F2.1595928040497426e-29
sg8
F3.6156817907334137e-32
ssS'"JJ" "I" "N"'
p1613
(dp1614
g47
F0.0
ssS'"S" "A" "A"'
p1615
(dp1616
g203
F0.0
sg26
F0.0
sg6
F0.0
ssS'"U" "K" "I"'
p1617
(dp1618
g18
F2.612941327903506e-127
ssS'"G" "U" "R"'
p1619
(dp1620
g42
F0.0
sg40
F0.0
ssS'"CH" "Y" "O"'
p1621
(dp1622
g51
F0.0
sg225
F4.7753018513313124e-63
ssS'"I" "TTS"'
p1623
(dp1624
g41
F0.0
ssS'"S" "O" "H"'
p1625
(dp1626
g26
F0.0
ssS'"B" "U" "R"'
p1627
(dp1628
g36
F0.0
ssS'"PP"'
p1629
(dp1630
g15
F3.872771058519423e-19
sg44
F0.0
sg14
F0.0
sg42
F0.0
sg48
F0.0
sg6
F0.0
sg35
F0.0
ssS'"R" "I" "S"'
p1631
(dp1632
g42
F0.0
sg46
F0.0
sg8
F0.0
ssS'"N" "U" "U"'
p1633
(dp1634
g52
F0.0
ssS'"E" "I" "N"'
p1635
(dp1636
g52
F0.0
sg7
F0.0
ssS'"E" "TT"'
p1637
(dp1638
g42
F0.0
sg44
F0.0
sg14
F0.0
ssS'"P" "U" "U"'
p1639
(dp1640
g15
F0.0
sg41
F0.0
ssS'"D" "A" "R"'
p1641
(dp1642
g49
F0.0
ssS'"H" "I"'
p1643
(dp1644
g119
F2.979027459857419e-36
sg14
F0.0
sg120
F1.757374810006925e-108
ssS'"N" "A" "A"'
p1645
(dp1646
g52
F0.0
sg6
F0.0
ssS'"A" "N" "P"'
p1647
(dp1648
g21
F0.0
ssS'"R" "O"'
p1649
(dp1650
g51
F2.3948473053462333e-134
sg50
F5.501884961781856e-128
sg42
F0.0
sg35
F1.0644477981354207e-192
sg46
F7.839399536041304e-18
sg8
F3.8072257740063405e-21
ssS'"O" "B" "O"'
p1651
(dp1652
g36
F2.1497376367036018e-48
ssS'"A" "CH"'
p1653
(dp1654
g46
F0.0
sg48
F0.0
sg6
F0.0
ssS'"D"'
p1655
(dp1656
g138
F0.0
sg39
F0.0
sg51
F0.0
sg7
F0.0
sg49
F0.9785054119667067
sg14
F0.0
sg44
F0.0
sg41
F0.0
sg31
F0.0
sg46
F0.0
sg42
F0.0
sg225
F0.0
sg3
F0.0
sg48
F0.0
sg6
F0.0
sg52
F0.0
sg35
F0.0
sg11
F0.0
sg26
F0.0
sg8
F0.0
ssS'"N" "J" "I"'
p1657
(dp1658
g47
F0.0
ssS'"U" "R" "A"'
p1659
(dp1660
g46
F7.533333284289578e-222
sg8
F5.0178422527744005e-216
ssS'"K" "U"'
p1661
(dp1662
g44
F0.0
sg18
F0.00039031902272472854
sg41
F0.0
sg36
F0.0
sg42
F0.0
sg87
F0.0
sg59
F0.0
sg11
F0.0
sg26
F0.0
ssS'"M" "O" "KK"'
p1663
(dp1664
g35
F0.0
ssS'"E" "T" "E"'
p1665
(dp1666
g203
F0.0
ssS'"I" "A" "N"'
p1667
(dp1668
g52
F0.0
ssS'"N" "G"'
p1669
(dp1670
g50
F0.0
sg42
F0.0
sg226
F2.007286119216363e-18
sg48
F0.0
sg14
F0.0
ssS'"A" "S" "U"'
p1671
(dp1672
g42
F0.0
sg203
F2.5391179113889567e-202
sg48
F0.0
sg26
F4.453567407733502e-221
ssS'"A" "O"'
p1673
(dp1674
g138
F9.059737655458999e-15
sg35
F0.0
ssS'"K" "E" "E"'
p1675
(dp1676
g18
F0.0
sg7
F0.0
ssS'"U" "M"'
p1677
(dp1678
g21
F1.4752597842557161e-27
sg42
F0.0
sg41
F0.0
sg8
F0.0
ssS'"A" "N" "T"'
p1679
(dp1680
g52
F0.0
ssS'"SSH"'
p1681
(dp1682
g76
F4.743061240542871e-148
sg44
F0.0
sg49
F0.0
sg14
F0.0
sg42
F0.0
sg225
F0.0
sg3
F0.0
sg48
F0.0
sg35
F0.0
sg26
F2.9488009739365565e-27
ssS'"W" "A" "A"'
p1683
(dp1684
g87
F0.0
sg6
F0.0
ssS'"D" "A" "U"'
p1685
(dp1686
g49
F0.0
ssS'"A" "H"'
p1687
(dp1688
g119
F0.0
sg120
F4.06691964098581e-248
sg50
F0.0
sg42
F0.0
sg48
F0.0
sg6
F0.0
ssS'"R" "O" "TT"'
p1689
(dp1690
g35
F0.0
ssS'"O" "P" "U"'
p1691
(dp1692
g15
F1.8468798559481956e-33
ssS'"I" "G" "U"'
p1693
(dp1694
g14
F0.0
sg40
F4.2667585569842345e-120
ssS'"HH" "A"'
p1695
(dp1696
g120
F2.4616482322924657e-215
sg18
F1.152683908006962e-46
ssS'"P" "Y" "U" "U"'
p1697
(dp1698
g15
F0.0
ssS'"I" "Z" "E"'
p1699
(dp1700
g43
F0.0
ssS'"I" "I" "P"'
p1701
(dp1702
g11
F0.0
ssS'"M" "A" "SSH"'
p1703
(dp1704
g21
F0.0
ssS'"O" "Z"'
p1705
(dp1706
g51
F2.6595718307442938e-306
sg50
F0.0
sg42
F0.0
sg43
F6.257668980315138e-35
sg35
F0.0
sg46
F2.3996047481321892e-163
ssS'"TT" "O"'
p1707
(dp1708
g59
F8.153755863570406e-07
ssS'"I" "Y" "A" "A"'
p1709
(dp1710
g6
F0.0
ssS'"U" "D"'
p1711
(dp1712
g138
F0.0
sg49
F6.044422128410127e-104
sg41
F0.0
sg3
F0.0
sg6
F0.0
sg26
F0.0
sg8
F0.0
ssS'"U" "KK"'
p1713
(dp1714
g3
F0.0
ssS'"Y" "O" "O"'
p1715
(dp1716
g50
F1.427161105887483e-47
sg51
F1.4917099545229274e-47
sg131
F0.0
sg35
F5.5837597845167055e-130
sg59
F0.0
ssS'"I" "TT"'
p1717
(dp1718
g42
F0.0
sg14
F0.0
ssS'"U" "S" "U"'
p1719
(dp1720
g203
F3.9288435892299587e-17
sg43
F1.0188068419885797e-304
sg26
F5.624211061445757e-25
ssS'"E" "N" "T"'
p1721
(dp1722
g44
F0.0
ssS'"A" "DD" "O"'
p1723
(dp1724
g49
F0.0
ssS'"H" "A" "A" "B"'
p1725
(dp1726
g6
F0.0
ssS'"J" "Y"'
p1727
(dp1728
g47
F0.8151970539106711
sg44
F0.0
sg49
F1.5547416211954596e-38
sg224
F0.999999999999995
sg7
F0.0
sg52
F0.0
ssS'"A" "I" "H"'
p1729
(dp1730
g31
F0.0
ssS'"U" "U" "A"'
p1731
(dp1732
g41
F2.388134916083974e-221
ssS'"U" "U" "Z"'
p1733
(dp1734
g41
F1.0257107081171398e-155
ssS'"E" "JJ" "I"'
p1735
(dp1736
g44
F0.0
ssS'"I" "N" "Z"'
p1737
(dp1738
g52
F2.7912624554816676e-253
ssS'"E" "J" "Y"'
p1739
(dp1740
g44
F0.0
sg7
F0.0
ssS'"Y" "A" "SSH" "Y"'
p1741
(dp1742
g48
F0.0
ssS'"D" "O" "O"'
p1743
(dp1744
g51
F0.0
sg49
F0.0
ssS'"B" "A" "N"'
p1745
(dp1746
g36
F0.0
ssS'"N" "K" "U"'
p1747
(dp1748
g18
F0.0
ssS'"D" "E" "P"'
p1749
(dp1750
g49
F0.0
ssS'"I" "HH"'
p1751
(dp1752
g14
F0.0
ssS'"U" "SH"'
p1753
(dp1754
g41
F0.0
ssS'"Y" "A"'
p1755
(dp1756
g138
F0.0
sg47
F0.0
sg76
F0.0
sg7
F0.0
sg14
F1.7745549598998747e-60
sg31
F0.0
sg46
F3.6378291117290213e-34
sg42
F5.662815460712515e-57
sg224
F0.0
sg225
F0.0
sg48
F4.595922386449026e-25
sg6
F1.2383045633931452e-36
sg35
F2.0036485960158212e-37
sg131
F0.0
sg11
F3.752612632563527e-71
ssS'"I" "I" "Z"'
p1757
(dp1758
g11
F1.5024784292267946e-164
ssS'"O" "E"'
p1759
(dp1760
g39
F7.42311422966027e-191
sg51
F6.413469261734554e-276
sg87
F0.0
ssS'"O" "I" "N"'
p1761
(dp1762
g39
F0.0
ssS'"O" "CH" "I"'
p1763
(dp1764
g225
F5.975984831928972e-31
ssS'"R" "O" "N"'
p1765
(dp1766
g8
F0.0
ssS'"T" "O" "W"'
p1767
(dp1768
g59
F0.0
ssS'"U" "S"'
p1769
(dp1770
g138
F0.0
sg120
F0.0
sg40
F0.0
sg15
F0.0
sg18
F0.0
sg41
F0.0
sg42
F0.0
sg203
F4.9274322570589556e-24
sg26
F4.536179983825613e-309
sg8
F0.0
ssS'"R" "A" "S"'
p1771
(dp1772
g42
F0.0
sg35
F0.0
sg46
F0.0
sg48
F0.0
sg8
F0.0
ssS'"Y" "U" "U" "D"'
p1773
(dp1774
g41
F0.0
ssS'"I" "TCH"'
p1775
(dp1776
g14
F0.0
ssS'"KK" "O"'
p1777
(dp1778
g51
F0.0
ssS'"T" "A" "I"'
p1779
(dp1780
g59
F0.0
ssS'"Z" "E" "R"'
p1781
(dp1782
g42
F0.0
ssS'"Y" "A" "K" "O" "B"'
p1783
(dp1784
g131
F0.0
ssS'"U" "W" "E"'
p1785
(dp1786
g87
F4.844204306967658e-181
ssS'"P" "U" "SSH"'
p1787
(dp1788
g15
F0.0
ssS'"H" "E" "A"'
p1789
(dp1790
g120
F0.0
ssS'"U" "U" "R" "E"'
p1791
(dp1792
g6
F0.0
ssS'"B" "E" "E"'
p1793
(dp1794
g34
F0.0
sg36
F0.0
sg7
F0.0
ssS'"J" "E"'
p1795
(dp1796
g47
F4.670174229645634e-140
sg6
F0.0
ssS'"B" "E" "I"'
p1797
(dp1798
g36
F0.0
ssS'"I" "CH" "Y" "U"'
p1799
(dp1800
g59
F4.4054177066818965e-290
ssS'"I" "M"'
p1801
(dp1802
g21
F1.1981462735362434e-126
sg31
F0.0
sg14
F0.0
sg42
F0.0
sg7
F0.0
sg11
F0.0
ssS'"S" "U" "E"'
p1803
(dp1804
g26
F0.0
ssS'"E" "U"'
p1805
(dp1806
g41
F2.673152833720999e-32
ssS'"S" "E" "K"'
p1807
(dp1808
g26
F0.0
ssS'"TCH" "I" "N"'
p1809
(dp1810
g225
F0.0
ssS'"I" "I" "T"'
p1811
(dp1812
g11
F0.0
ssS'"U" "CH" "I"'
p1813
(dp1814
g225
F0.0
ssS'"W" "I"'
p1815
(dp1816
g34
F0.0
sg11
F0.0
sg87
F1.4495236461151983e-113
ssS'"S" "U" "R"'
p1817
(dp1818
g203
F4.5436554043117274e-132
sg26
F0.0
ssS'"T" "E" "PP"'
p1819
(dp1820
g44
F0.0
ssS'"A" "I" "P"'
p1821
(dp1822
g31
F0.0
ssS'"B" "O"'
p1823
(dp1824
g42
F0.0
sg51
F0.0
sg36
F1.836298113406326e-31
sg34
F5.144916019116332e-51
ssS'"R" "U" "D"'
p1825
(dp1826
g49
F0.0
sg6
F0.0
sg8
F0.0
ssS'"O" "TCH"'
p1827
(dp1828
g35
F0.0
ssS'"A" "CH" "I"'
p1829
(dp1830
g225
F4.06324970861137e-212
sg46
F0.0
ssS'"SS"'
p1831
(dp1832
g42
F0.0
sg35
F0.0
sg48
F0.0
sg26
F2.4511846807353047e-34
sg44
F0.0
ssS'"N" "R"'
p1833
(dp1834
g52
F9.764031659381087e-271
sg46
F0.0
ssS'"H" "A" "N"'
p1835
(dp1836
g119
F0.0
ssS'"U" "Z"'
p1837
(dp1838
g21
F0.0
sg40
F0.0
sg49
F3.778649674812279e-231
sg41
F0.0
sg42
F0.0
sg43
F4.809838794413257e-95
ssS'"E" "T" "A"'
p1839
(dp1840
g59
F0.0
ssS'"I" "CH" "Y"'
p1841
(dp1842
g59
F7.931015550703492e-223
ssS'"O" "PP" "U"'
p1843
(dp1844
g35
F0.0
sg15
F0.0
ssS'"O" "TT" "O"'
p1845
(dp1846
g59
F0.0
ssS'"K" "I" "DD"'
p1847
(dp1848
g14
F0.0
ssS'"T" "E"'
p1849
(dp1850
g44
F0.0
sg14
F0.0
sg42
F0.0
sg7
F0.0
sg59
F2.561063767884873e-145
sg203
F0.0
ssS'"R" "A" "M"'
p1851
(dp1852
g42
F0.0
sg48
F0.0
ssS'"O" "I" "J"'
p1853
(dp1854
g39
F0.0
ssS'"O" "S" "U"'
p1855
(dp1856
g50
F0.0
sg51
F0.0
sg35
F0.0
sg26
F1.7593456395871244e-72
ssS'"B" "A" "A"'
p1857
(dp1858
g36
F0.0
sg6
F0.0
ssS'"N" "I"'
p1859
(dp1860
g52
F4.1470636166644164e-112
sg11
F0.0
sg131
F0.0
ssS'"G" "Y" "A" "N"'
p1861
(dp1862
g40
F0.0
ssS'"S" "A"'
p1863
(dp1864
g42
F0.0
sg203
F8.917252988907649e-206
sg26
F7.382051554445693e-145
ssS'"M" "A" "A"'
p1865
(dp1866
g21
F0.0
sg6
F1.052668415881863e-189
ssS'"HH" "I"'
p1867
(dp1868
g120
F5.475711755126212e-121
ssS'"R" "U" "M"'
p1869
(dp1870
g8
F0.0
ssS'"P" "O"'
p1871
(dp1872
g50
F0.0
sg52
F0.0
sg51
F0.0
sg15
F7.593179755900123e-25
ssS'"TS" "U" "I"'
p1873
(dp1874
g59
F0.0
ssS'"A" "I" "E"'
p1875
(dp1876
g31
F0.0
ssS'"O" "N" "I"'
p1877
(dp1878
g52
F0.0
ssS'"G" "A" "U"'
p1879
(dp1880
g40
F0.0
ssS'"A" "KK"'
p1881
(dp1882
g42
F0.0
sg35
F0.0
sg48
F0.0
ssS'"A" "I" "T"'
p1883
(dp1884
g31
F0.0
ssS'"B" "A" "W"'
p1885
(dp1886
g34
F0.0
ssS'"K" "Y" "A" "SSH"'
p1887
(dp1888
g18
F0.0
ssS'"U" "U" "T"'
p1889
(dp1890
g138
F0.0
sg41
F0.0
sg3
F0.0
ssS'"H" "A" "A"'
p1891
(dp1892
g119
F0.0
sg120
F0.0
sg6
F4.938910177923181e-152
ssS'"M" "O" "GG"'
p1893
(dp1894
g35
F0.0
ssS'"E" "E"'
p1895
(dp1896
g21
F0.0
sg39
F0.0
sg51
F0.0
sg15
F0.0
sg7
F0.9999999999888666
sg14
F6.424311323694999e-236
sg42
F2.3894625545262317e-49
sg87
F0.0
sg48
F5.466515132690678e-40
sg11
F9.630607866086136e-25
sg44
F8.930722323237494e-37
ssS'"E" "E" "P"'
p1897
(dp1898
g7
F0.0
ssS'"G" "A" "I"'
p1899
(dp1900
g40
F0.0
ssS'"DD" "O"'
p1901
(dp1902
g49
F1.3285178950892354e-14
ssS'"R" "U" "K" "U"'
p1903
(dp1904
g11
F0.0
ssS'"N" "M" "A"'
p1905
(dp1906
g21
F2.6150651328430276e-220
ssS'"Y" "O" "O" "K"'
p1907
(dp1908
g51
F0.0
sg35
F0.0
ssS'"E" "N"'
p1909
(dp1910
g42
F0.0
sg14
F0.0
sg44
F0.0
sg7
F0.0
sg52
F1.1124199349120187e-42
ssS'"N" "A" "TCH"'
p1911
(dp1912
g48
F0.0
ssS'"Z" "A" "I"'
p1913
(dp1914
g43
F0.0
ssS'"U" "G" "A"'
p1915
(dp1916
g40
F0.0
ssS'"E" "PP"'
p1917
(dp1918
g44
F0.0
ssS'"I" "M" "U"'
p1919
(dp1920
g21
F1.21017885943907e-116
ssS'"SH" "Y" "A" "W"'
p1921
(dp1922
g76
F0.0
ssS'"E" "Z" "U"'
p1923
(dp1924
g43
F7.031784736547681e-145
ssS'"Y" "U" "Y"'
p1925
(dp1926
g31
F0.0
ssS'"SS" "U"'
p1927
(dp1928
g26
F0.0
ssS'"R" "Y"'
p1929
(dp1930
g8
F8.209321308193488e-49
ssS'"E" "KK"'
p1931
(dp1932
g44
F0.0
ssS'"I" "I" "N"'
p1933
(dp1934
g52
F0.0
sg11
F0.0
sg31
F0.0
ssS'"Y" "O"'
p1935
(dp1936
g47
F0.0
sg50
F3.1747715032033933e-53
sg51
F1.900865078334084e-64
sg42
F7.515897843368723e-42
sg35
F8.993042192626189e-54
sg131
F5.477214563629257e-20
ssS'"Y" "A" "A" "CH"'
p1937
(dp1938
g6
F0.0
ssS'"K" "U" "S"'
p1939
(dp1940
g18
F0.0
ssS'"E" "R" "A"'
p1941
(dp1942
g8
F0.0
ssS'"G" "E" "E"'
p1943
(dp1944
g40
F0.0
ssS'"A" "U" "D"'
p1945
(dp1946
g138
F0.0
ssS'"R"'
p1947
(dp1948
g138
F0.0
sg39
F0.0
sg40
F0.0
sg41
F0.0
sg42
F0.0
sg6
F3.8654415986218238e-87
sg11
F0.0
sg203
F0.0
sg46
F0.892158785889565
sg44
F0.0
sg49
F0.0
sg50
F0.0
sg31
F0.0
sg3
F0.0
sg52
F0.0
sg8
F0.90232017278588
sg21
F0.0
sg51
F0.0
sg18
F0.0
sg14
F0.0
sg7
F0.0
sg35
F0.0
sg48
F0.0
ssS'"B" "O" "KK"'
p1949
(dp1950
g36
F0.0
ssS'"B" "E" "R"'
p1951
(dp1952
g34
F0.0
sg36
F0.0
ssS'"H" "O" "I"'
p1953
(dp1954
g119
F0.0
sg120
F0.0
ssS'"Y" "A" "NN"'
p1955
(dp1956
g11
F0.0
ssS'"U" "R" "E"'
p1957
(dp1958
g6
F2.415913525985643e-143
sg46
F1.3442221627498035e-142
sg8
F6.18014810192617e-147
ssS'"CH" "I" "PP"'
p1959
(dp1960
g225
F0.0
ssS'"K" "I"'
p1961
(dp1962
g14
F0.0
sg11
F0.0
sg18
F4.5994472870315155e-22
ssS'"O" "O" "R"'
p1963
(dp1964
g50
F0.0
sg51
F0.0
sg35
F0.0
sg6
F1.7417271033538072e-48
ssS'"Z" "U" "U"'
p1965
(dp1966
g43
F0.0
ssS'"Y" "A" "B"'
p1967
(dp1968
g48
F0.0
ssS'"E" "B" "I"'
p1969
(dp1970
g34
F1.4468366231867685e-236
ssS'"K" "O" "B" "U"'
p1971
(dp1972
g35
F0.0
ssS'"I" "T"'
p1973
(dp1974
g31
F0.0
sg14
F0.0
sg42
F0.0
sg7
F0.0
sg59
F2.983782991105576e-115
sg11
F0.0
ssS'"E" "Z"'
p1975
(dp1976
g14
F0.0
sg44
F7.293263468628636e-162
sg7
F0.0
sg43
F4.8674506799711916e-147
ssS'"P" "A" "I"'
p1977
(dp1978
g31
F0.0
sg15
F0.0
ssS'"E" "I" "P"'
p1979
(dp1980
g7
F0.0
ssS'"S" "U" "K"'
p1981
(dp1982
g26
F0.0
ssS'"H" "U"'
p1983
(dp1984
g119
F1.251162304044684e-46
sg120
F0.0002066670357409263
sg44
F0.0
sg18
F4.3767559218967693e-103
sg34
F3.614338239285318e-117
sg50
F0.0
sg14
F0.0
sg42
F0.0
sg35
F0.0
ssS'"A" "P" "U"'
p1985
(dp1986
g15
F0.0
ssS'"S" "U" "T" "O"'
p1987
(dp1988
g59
F0.0
ssS'"O" "O" "K"'
p1989
(dp1990
g50
F0.0
sg51
F0.0
sg35
F0.0
ssS'"R" "I" "I"'
p1991
(dp1992
g11
F5.436445147291377e-46
sg46
F0.0
sg8
F0.0
ssS'"Y" "O" "KK"'
p1993
(dp1994
g35
F0.0
ssS'"B" "Y"'
p1995
(dp1996
g34
F0.0
sg36
F0.0
ssS'"H" "Y"'
p1997
(dp1998
g120
F0.0
ssS'"K"'
p1999
(dp2000
g41
F0.0
sg42
F0.0
sg6
F0.0
sg11
F0.0
sg7
F0.0
sg46
F0.0
sg44
F0.0
sg50
F0.0
sg51
F0.0
sg36
F0.0
sg225
F5.545627279613771e-29
sg3
F0.0
sg52
F0.0
sg226
F0.0
sg131
F0.0
sg8
F0.0
sg31
F0.0
sg18
F0.999575352290452
sg14
F0.0
sg87
F0.0
sg48
F0.0
sg35
F0.0
sg26
F0.0
ssS'"PP" "A" "A"'
p2001
(dp2002
g6
F0.0
ssS'"E" "P"'
p2003
(dp2004
g11
F0.0
sg15
F1.601683279167486e-145
sg44
F0.0
sg7
F0.0
ssS'"CH" "I" "R"'
p2005
(dp2006
g225
F0.0
sg59
F0.0
ssS'"BB" "U"'
p2007
(dp2008
g36
F8.92520347057899e-36
ssS'"A" "N" "G" "U"'
p2009
(dp2010
g226
F0.0
ssS'"A" "D" "O"'
p2011
(dp2012
g49
F5.796088940508742e-130
ssS'"Z" "U"'
p2013
(dp2014
g49
F8.494700671466549e-105
sg14
F0.0
sg45
F1.0154994098980984e-15
sg42
F0.0
sg43
F0.9999998614654385
sg46
F0.0
ssS'"E" "SSH"'
p2015
(dp2016
g44
F0.0
ssS'"Y" "A" "G"'
p2017
(dp2018
g42
F0.0
sg48
F0.0
ssS'"S" "U" "N"'
p2019
(dp2020
g26
F0.0
ssS'"I" "Z" "A"'
p2021
(dp2022
g43
F2.729883891359242e-303
ssS'"K" "A" "I"'
p2023
(dp2024
g31
F0.0
sg18
F0.0
ssS'"N" "O" "BB"'
p2025
(dp2026
g35
F0.0
ssS'"I" "R" "O"'
p2027
(dp2028
g51
F0.0
sg46
F3.602989400348764e-41
ssS'"A" "T"'
p2029
(dp2030
g7
F0.0
sg49
F0.0
sg59
F1.1411702776093837e-47
sg42
F0.0
sg48
F0.0
sg6
F0.0
sg35
F0.0
sg46
F0.0
ssS'"U" "U" "S" "U"'
p2031
(dp2032
g43
F0.0
sg26
F0.0
ssS'"E" "T" "O"'
p2033
(dp2034
g59
F1.1334521026176998e-146
ssS'"U" "P" "U"'
p2035
(dp2036
g15
F1.2604217467944513e-30
ssS'"T" "A" "M"'
p2037
(dp2038
g42
F0.0
ssS'"O" "KK" "U"'
p2039
(dp2040
g35
F0.0
sg18
F0.0
ssS'"A" "H" "U"'
p2041
(dp2042
g42
F0.0
sg48
F0.0
sg120
F1.0734083300903827e-24
ssS'"A" "B"'
p2043
(dp2044
g7
F0.0
sg34
F1.334052865413582e-245
sg36
F1.4141974973516378e-214
sg42
F0.0
sg48
F0.0
sg6
F0.0
sg35
F0.0
sg46
F0.0
ssS'"N" "D"'
p2045
(dp2046
g52
F0.0
ssS'"J" "Y" "U" "U"'
p2047
(dp2048
g47
F0.0
sg49
F0.0
ssS'"U" "B" "O"'
p2049
(dp2050
g36
F6.990886352024381e-45
ssS'"U" "H"'
p2051
(dp2052
g120
F7.257180244545413e-27
sg41
F0.0
sg8
F0.0
ssS'"P" "A" "R"'
p2053
(dp2054
g15
F0.0
ssS'"T" "A" "KK"'
p2055
(dp2056
g48
F0.0
sg59
F0.0
ssS'"U" "U" "M"'
p2057
(dp2058
g21
F0.0
sg41
F0.0
ssS'"K" "O" "TT"'
p2059
(dp2060
g35
F0.0
ssS'"U" "G" "U"'
p2061
(dp2062
g40
F1.359778412669928e-99
ssS'"M" "U"'
p2063
(dp2064
g21
F0.0002981937728840084
sg11
F0.0
sg44
F0.0
sg46
F0.0
ssS'"U" "E" "E"'
p2065
(dp2066
g87
F0.0
ssS'"A" "K"'
p2067
(dp2068
g44
F0.0
sg18
F4.375174554613548e-230
sg42
F0.0
sg48
F0.0
sg6
F0.0
sg35
F0.0
sg46
F0.0
ssS'"K" "A" "R"'
p2069
(dp2070
g42
F0.0
sg18
F0.0
ssS'"E" "E" "S"'
p2071
(dp2072
g7
F2.5e-322
ssS'"P" "Y" "U" "U" "R"'
p2073
(dp2074
g15
F0.0
ssS'"O" "R" "U" "T"'
p2075
(dp2076
g6
F0.0
ssS'"S" "U" "W"'
p2077
(dp2078
g26
F0.0
ssS'"E" "GG"'
p2079
(dp2080
g44
F0.0
ssS'"M" "E" "R"'
p2081
(dp2082
g21
F0.0
ssS'"W" "O" "O"'
p2083
(dp2084
g87
F0.0
ssS'"Y" "A" "I" "M"'
p2085
(dp2086
g31
F0.0
ssS'"S" "O" "U"'
p2087
(dp2088
g26
F0.0
ssS'"S" "U" "D"'
p2089
(dp2090
g26
F0.0
ssS'"U" "W" "A"'
p2091
(dp2092
g87
F0.0
ssS'"G" "O" "O"'
p2093
(dp2094
g40
F0.0
ssS'"W" "E" "S"'
p2095
(dp2096
g87
F0.0
ssS'"D" "E" "E"'
p2097
(dp2098
g7
F0.0
sg49
F0.0
ssS'"E" "E" "N"'
p2099
(dp2100
g52
F0.0
ssS'"O" "K"'
p2101
(dp2102
g50
F0.0
sg51
F0.0
sg35
F0.0
sg18
F7.905608885016474e-29
sg46
F0.0
ssS'"T" "I"'
p2103
(dp2104
g14
F0.0
sg11
F0.0
sg49
F5.505528691184076e-249
sg59
F5.353828506122013e-109
ssS'"A" "A" "R"'
p2105
(dp2106
g42
F0.0
sg35
F0.0
sg6
F0.0
ssS'"W" "O" "R" "U"'
p2107
(dp2108
g87
F0.0
ssS'"A" "T" "I"'
p2109
(dp2110
g49
F0.0
sg59
F1.97247853e-316
ssS'"R" "E" "J"'
p2111
(dp2112
g8
F0.0
ssS'"T" "I" "A"'
p2113
(dp2114
g59
F0.0
ssS'"I" "TS"'
p2115
(dp2116
g11
F0.0
sg59
F0.0
ssS'"A" "JJ"'
p2117
(dp2118
g42
F0.0
sg35
F0.0
sg48
F0.0
ssS'"Y" "O" "PP"'
p2119
(dp2120
g35
F0.0
ssS'"R" "O" "KK"'
p2121
(dp2122
g35
F0.0
ssS'"H" "E"'
p2123
(dp2124
g119
F0.0
sg120
F1.5074884087382817e-144
ssS'"A" "N" "A"'
p2125
(dp2126
g52
F0.0
ssS'"Y" "A" "SSH"'
p2127
(dp2128
g48
F0.0
ssS'"I" "I"'
p2129
(dp2130
g31
F1.8055444247601159e-35
sg15
F0.0
sg14
F1.1565970080472317e-46
sg42
F6.080986498658031e-121
sg87
F0.0
sg43
F0.0
sg52
F0.0
sg11
F0.9999999999941903
sg8
F0.0
ssS'"A" "U" "S"'
p2131
(dp2132
g138
F8e-323
ssS'"R" "A" "TT"'
p2133
(dp2134
g48
F0.0
ssS'"Y"'
p2135
(dp2136
g138
F0.0
sg41
F7.8958526865322e-175
sg42
F0.0
sg6
F0.0
sg11
F6.287296667223995e-66
sg76
F0.0
sg34
F0.0
sg59
F0.0
sg7
F0.0
sg46
F0.0
sg47
F4.249680092337191e-261
sg44
F0.0
sg50
F0.0
sg31
F9.516778881616206e-256
sg224
F0.0
sg225
F0.0
sg3
F9.647388830980424e-128
sg52
F0.0
sg131
F0.9999999999996656
sg8
F0.0
sg21
F0.0
sg51
F0.0
sg18
F0.0
sg14
F8.083843638726542e-288
sg48
F4.686684474709679e-248
sg35
F5.191325811490835e-295
ssS'"B" "E" "M"'
p2137
(dp2138
g36
F0.0
ssS'"K" "I" "I"'
p2139
(dp2140
g11
F0.0
sg18
F0.0
ssS'"HH"'
p2141
(dp2142
g42
F0.0
sg35
F0.0
sg120
F2.5562818751082658e-23
sg48
F0.0
sg14
F0.0
ssS'"I" "B"'
p2143
(dp2144
g31
F0.0
sg34
F5.486745326986148e-111
sg14
F0.0
sg36
F1.6714913453643739e-124
sg42
F0.0
sg11
F0.0
ssS'"B" "O" "U"'
p2145
(dp2146
g36
F0.0
ssS'"R" "E"'
p2147
(dp2148
g44
F3.443738381205316e-272
sg42
F0.0
sg7
F1.6501939685480795e-230
sg6
F7.552395363021986e-183
sg11
F0.0
sg46
F4.114147787133686e-144
sg8
F1.0411710652858229e-103
ssS'"A" "K" "O" "B" "U"'
p2149
(dp2150
g35
F9.159771944267625e-32
ssS'"M" "A" "S"'
p2151
(dp2152
g21
F0.0
ssS'"R" "O" "I"'
p2153
(dp2154
g39
F3.578681445820513e-125
sg8
F0.0
ssS'"A" "I" "M"'
p2155
(dp2156
g31
F0.0
ssS'"A" "TCH" "I"'
p2157
(dp2158
g225
F0.0
sg48
F0.0
ssS'"H" "O" "O"'
p2159
(dp2160
g119
F0.0
sg120
F0.0
ssS'"U" "U" "B"'
p2161
(dp2162
g41
F0.0
sg36
F0.0
ssS'"P" "O" "R"'
p2163
(dp2164
g15
F0.0
ssS'"E" "DD"'
p2165
(dp2166
g42
F0.0
sg44
F0.0
ssS'"N" "M"'
p2167
(dp2168
g21
F3.2009971437801946e-23
sg48
F0.0
ssS'"U" "U" "D"'
p2169
(dp2170
g41
F0.0
sg3
F0.0
ssS'"N" "E" "E"'
p2171
(dp2172
g52
F0.0
ssS'"O" "TCH" "Y"'
p2173
(dp2174
g35
F0.0
ssS'"TTS" "U"'
p2175
(dp2176
g26
F0.0
sg59
F0.0
ssS'"I" "I" "S"'
p2177
(dp2178
g11
F2.093263342865509e-164
ssS'"U" "P" "A"'
p2179
(dp2180
g15
F3.146776646344463e-248
ssS'"CH" "I" "I"'
p2181
(dp2182
g225
F0.0
sg59
F0.0
ssS'"CH" "E" "S"'
p2183
(dp2184
g225
F0.0
ssS'"O" "O" "R" "U"'
p2185
(dp2186
g50
F0.0
sg51
F0.0
sg8
F0.0
ssS'"U" "R" "U" "D"'
p2187
(dp2188
g6
F0.0
ssS'"K" "U" "R" "U"'
p2189
(dp2190
g18
F0.0
ssS'"M" "O" "O"'
p2191
(dp2192
g21
F0.0
ssS'"SSH" "Y" "A"'
p2193
(dp2194
g76
F5.270966903150665e-206
ssS'"Y" "A" "Z"'
p2195
(dp2196
g48
F8.43158081608957e-195
ssS'"U" "U"'
p2197
(dp2198
g138
F5.846146196477266e-45
sg21
F0.0
sg50
F8.908454195552487e-33
sg14
F0.0
sg41
F0.9999999933585847
sg36
F0.0
sg42
F1.0457531669095936e-50
sg87
F0.0
sg3
F2.8312569249191974e-07
sg6
F0.0
sg35
F0.0
sg131
F0.0
ssS'"A" "SH" "Y"'
p2199
(dp2200
g48
F0.0
ssS'"E" "I"'
p2201
(dp2202
g14
F1.6342518914099208e-75
sg7
F1.1055120465657913e-11
ssS'"A" "Y"'
p2203
(dp2204
g31
F1.0267555121120512e-34
sg7
F2.864584625342254e-286
ssS'"H" "A" "I" "Y"'
p2205
(dp2206
g119
F0.0
ssS'"R" "U" "H"'
p2207
(dp2208
g8
F0.0
ssS'"D" "O" "R"'
p2209
(dp2210
g42
F0.0
sg49
F8.242206012798609e-140
ssS'"R" "E" "E"'
p2211
(dp2212
g46
F0.0
sg7
F1.4308032873439957e-127
sg8
F0.0
ssS'"TCH" "I" "D"'
p2213
(dp2214
g225
F0.0
ssS'"A" "I" "D"'
p2215
(dp2216
g31
F0.0
ssS'"U" "P" "O"'
p2217
(dp2218
g52
F0.0
ssS'"E" "E" "J"'
p2219
(dp2220
g42
F0.0
sg7
F0.0
ssS'"Y" "A" "PP"'
p2221
(dp2222
g48
F0.0
ssS'"E" "NN"'
p2223
(dp2224
g44
F0.0
ssS'"U" "K" "A"'
p2225
(dp2226
g42
F0.0
sg18
F5.099882210140264e-258
ssS'"O" "R" "I"'
p2227
(dp2228
g35
F0.0
sg46
F3.562187488033736e-120
ssS'"K" "U" "W"'
p2229
(dp2230
g18
F0.0
ssS'"A" "NN"'
p2231
(dp2232
g42
F0.0
sg35
F0.0
sg11
F0.0
ssS'"E" "R"'
p2233
(dp2234
g21
F0.0
sg44
F2.65760591271275e-231
sg14
F0.0
sg42
F0.0
sg7
F0.0
sg6
F3.054752638173602e-30
sg11
F0.0
sg46
F1.4998756250346242e-38
sg8
F9.403700799332051e-154
ssS'"K" "O" "R"'
p2235
(dp2236
g18
F0.0
ssS'"U" "B" "A"'
p2237
(dp2238
g42
F0.0
ssS'"O" "T" "I"'
p2239
(dp2240
g59
F2.7311501982838976e-132
ssS'"A" "P"'
p2241
(dp2242
g42
F0.0
sg15
F0.0
sg46
F0.0
sg48
F0.0
ssS'"H" "A" "SSH"'
p2243
(dp2244
g119
F0.0
ssS'"N" "G" "I"'
p2245
(dp2246
g226
F4.469059345180767e-114
ssS'"M" "I"'
p2247
(dp2248
g21
F1.413675560318931e-107
sg42
F0.0
sg11
F0.0
ssS'"A" "B" "A"'
p2249
(dp2250
g42
F0.0
sg36
F0.0
sg34
F0.0
ssS'"R" "Y" "U" "U"'
p2251
(dp2252
g8
F0.0
ssS'"E" "O" "S"'
p2253
(dp2254
g35
F0.0
ssS'"A" "TT"'
p2255
(dp2256
g42
F0.0
sg35
F0.0
sg48
F0.0
sg59
F0.0
ssS'"G" "A" "R"'
p2257
(dp2258
g40
F0.0
ssS'"S" "E" "KK"'
p2259
(dp2260
g26
F0.0
ssS'"U" "R" "I"'
p2261
(dp2262
g11
F0.0
sg46
F5.693350738281917e-116
sg8
F9.562306022509967e-115
ssS'"B" "A" "I" "Y"'
p2263
(dp2264
g36
F0.0
ssS'"O" "R"'
p2265
(dp2266
g51
F1.013e-321
sg50
F0.0
sg14
F0.0
sg42
F0.0
sg6
F9.538790258039707e-39
sg35
F0.0
sg46
F1.3323625494778567e-14
sg8
F1.1205821920993828e-34
ssS'"A" "SH"'
p2267
(dp2268
g42
F0.0
sg203
F2.9005768209875645e-213
sg48
F0.0
sg7
F0.0
sg46
F0.0
ssS'"SSH" "Y" "U"'
p2269
(dp2270
g76
F0.567590642433558
ssS'"I" "P"'
p2271
(dp2272
g14
F0.0
sg11
F0.0
sg15
F6.3127547184961915e-124
sg31
F0.0
sg7
F0.0
ssS'"K" "Y" "U"'
p2273
(dp2274
g131
F0.0
sg18
F1.7474957497744494e-105
ssS'"I" "TS" "U"'
p2275
(dp2276
g59
F4.799247115349004e-142
ssS'"O" "K" "U"'
p2277
(dp2278
g18
F2.2411857244724482e-21
ssS'"K" "E"'
p2279
(dp2280
g26
F0.0
sg18
F1.0582000290771714e-143
sg7
F0.0
sg44
F0.0
ssS'"A" "A" "K"'
p2281
(dp2282
g46
F0.0
sg6
F0.0
ssS'"S" "O" "I"'
p2283
(dp2284
g26
F0.0
ssS'"A" "JJ" "I"'
p2285
(dp2286
g47
F0.0
ssS'"NN" "E"'
p2287
(dp2288
g52
F0.0
ssS'"S" "O" "O"'
p2289
(dp2290
g50
F0.0
sg26
F0.0
ssS'"R" "A" "TCH"'
p2291
(dp2292
g42
F0.0
ssS'"E" "S" "A"'
p2293
(dp2294
g26
F0.0
ssS'"R" "O" "PP"'
p2295
(dp2296
g35
F0.0
ssS'"I" "A" "S"'
p2297
(dp2298
g42
F0.0
ssS'"PP" "U"'
p2299
(dp2300
g14
F0.0
sg35
F0.0
sg15
F9.777845300320983e-11
sg59
F0.0
ssS'"W"'
p2301
(dp2302
g138
F0.0
sg119
F0.0
sg31
F0.0
sg34
F1.2179374740167988e-42
sg42
F0.0
sg87
F0.9999999999999275
sg7
F0.0
sg6
F0.0
sg52
F0.0
sg35
F0.0
sg46
F0.0
ssS'"TT" "A"'
p2303
(dp2304
g59
F8.892551674961592e-211
ssS'"R" "I" "R"'
p2305
(dp2306
g14
F0.0
ssS'"B" "U" "U"'
p2307
(dp2308
g36
F0.0
ssS'"B" "E"'
p2309
(dp2310
g34
F9.267782525313042e-146
sg36
F2.6666221670829956e-149
ssS'"O" "E" "D" "O"'
p2311
(dp2312
g49
F1.5147018724706392e-42
ssS'"G" "U"'
p2313
(dp2314
g42
F0.0
sg40
F1.4967279443244836e-05
sg226
F1.178447569915329e-242
sg43
F3.914669268233874e-18
ssS'"R" "I" "PP"'
p2315
(dp2316
g14
F0.0
ssS'"Y" "A" "JJ"'
p2317
(dp2318
g42
F0.0
ssS'"U" "D" "O"'
p2319
(dp2320
g49
F6.782382256316782e-23
sg59
F2.173732860246978e-71
ssS'"N" "A" "SSH"'
p2321
(dp2322
g52
F0.0
ssS'"P" "E" "R"'
p2323
(dp2324
g15
F0.0
ssS'"A" "N" "S"'
p2325
(dp2326
g52
F0.0
ssS'"E"'
p2327
(dp2328
g138
F0.0
sg39
F0.0
sg40
F0.0
sg15
F0.0
sg41
F0.0
sg42
F8.492107071483545e-18
sg43
F0.0
sg6
F6.669920659408012e-87
sg11
F1.8893266485348678e-21
sg76
F0.0
sg34
F0.0
sg59
F1.3925512635391276e-202
sg7
F7.829887707404375e-14
sg203
F0.0
sg46
F0.0
sg120
F0.0
sg47
F0.0
sg44
F1.0
sg49
F0.0
sg36
F0.0
sg225
F0.0
sg52
F0.0
sg131
F2.1768780475996727e-249
sg8
F0.0
sg21
F0.0
sg51
F0.0
sg18
F0.0
sg14
F2.1083733305094275e-26
sg31
F0.0
sg87
F1.7528968753256208e-62
sg48
F0.0
sg119
F0.0
sg35
F0.0
sg26
F0.0
ssS'"E" "J" "I"'
p2329
(dp2330
g47
F5.253222641093085e-127
sg43
F8.011176105001686e-234
ssS'"E" "H" "A"'
p2331
(dp2332
g120
F0.0
ssS'"I" "W"'
p2333
(dp2334
g31
F0.0
sg87
F1.3242968441050105e-204
ssS'"D" "O"'
p2335
(dp2336
g42
F0.0
sg49
F0.021494588033280027
sg59
F1.2820714062260312e-29
ssS'"I" "I" "H"'
p2337
(dp2338
g11
F0.0
ssS'"U" "U" "I"'
p2339
(dp2340
g14
F0.0
ssS'"E" "TS" "U"'
p2341
(dp2342
g59
F5.989801383026302e-159
ssS'"K" "O" "I"'
p2343
(dp2344
g18
F0.0
ssS'"A" "Y" "A"'
p2345
(dp2346
g31
F0.0
ssS'"J" "I" "S"'
p2347
(dp2348
g42
F0.0
ssS'"A" "N"'
p2349
(dp2350
g21
F0.0
sg7
F0.0
sg50
F3.614778598299435e-115
sg42
F0.0
sg48
F5.537472410301923e-25
sg6
F0.0
sg52
F2.1830784088770707e-39
sg35
F0.0
sg226
F0.0
sg46
F0.0
ssS'"I" "T" "O"'
p2351
(dp2352
g59
F4.621673757787019e-110
ssS'"O" "O" "E"'
p2353
(dp2354
g51
F3.3754844741204126e-55
ssS'"E" "I" "T"'
p2355
(dp2356
g7
F0.0
ssS'"P" "U" "R"'
p2357
(dp2358
g15
F7.732111941598801e-137
ssS'"R" "U" "U"'
p2359
(dp2360
g41
F0.0
sg46
F0.0
sg8
F0.0
ssS'"I" "I" "TS"'
p2361
(dp2362
g11
F0.0
ssS'"E" "M" "U"'
p2363
(dp2364
g21
F1.0931656274930576e-147
sg11
F4.2712638060086885e-39
sg44
F0.0
ssS'"P" "U" "S"'
p2365
(dp2366
g15
F0.0
sg26
F1.1602174158872788e-38
ssS'"A" "W" "A"'
p2367
(dp2368
g138
F2.0544846279463054e-201
ssS'"I" "J" "I"'
p2369
(dp2370
g47
F0.0
sg43
F7.142337259265135e-200
ssS'"JJ" "I"'
p2371
(dp2372
g47
F0.00018325999596871304
ssS'"E" "E" "TS"'
p2373
(dp2374
g7
F0.0
ssS'"G" "Y" "A"'
p2375
(dp2376
g40
F0.0
ssS'"Y" "A" "K" "O"'
p2377
(dp2378
g131
F0.0
ssS'"A" "W"'
p2379
(dp2380
g138
F6.664587289700243e-13
sg42
F0.0
sg46
F0.0
sg34
F0.0
ssS'"N" "P"'
p2381
(dp2382
g21
F0.0
sg52
F0.0
sg15
F0.0
ssS'"RR" "A"'
p2383
(dp2384
g8
F4.698921269435938e-48
ssS'"P" "Y"'
p2385
(dp2386
g15
F1.23952075791581e-37
ssS'"Y" "A" "H"'
p2387
(dp2388
g48
F0.0
ssS'"D" "I" "I"'
p2389
(dp2390
g11
F0.0
sg49
F0.0
ssS'"U" "U" "N"'
p2391
(dp2392
g52
F0.0
ssS'"R" "E" "N"'
p2393
(dp2394
g7
F0.0
ssS'"K" "O" "O" "E"'
p2395
(dp2396
g18
F0.0
ssS'"O" "I" "I"'
p2397
(dp2398
g87
F0.0
ssS'"A" "I" "I"'
p2399
(dp2400
g31
F0.0
ssS'"U" "K"'
p2401
(dp2402
g18
F1.588727219466441e-34
sg41
F0.0
sg3
F0.0
sg6
F0.0
sg46
F0.0
sg26
F0.0
sg8
F0.0
ssS'"N" "A"'
p2403
(dp2404
g42
F0.0
sg6
F0.0
sg48
F4.644203505877641e-78
sg52
F3.456256871708088e-212
ssS'"I" "D" "I"'
p2405
(dp2406
g49
F0.0
ssS'"A" "N" "K"'
p2407
(dp2408
g226
F0.0
ssS'"I" "A" "A"'
p2409
(dp2410
g14
F0.0
sg11
F0.0
sg6
F0.0
ssS'"O" "O"'
p2411
(dp2412
g138
F5.675419200388374e-25
sg119
F0.0
sg51
F0.8803497528279249
sg50
F0.19433439887921583
sg59
F0.0
sg42
F1.0158680589534559e-255
sg87
F0.0
sg6
F1.1817553417955253e-83
sg35
F4.5884782745834025e-21
sg46
F0.0
sg26
F0.0
ssS'"TT" "A" "A"'
p2413
(dp2414
g6
F0.0
ssS'"R" "A" "U"'
p2415
(dp2416
g138
F0.0
sg46
F0.0
sg8
F0.0
ssS'"I" "E"'
p2417
(dp2418
g42
F0.0
sg11
F0.0
sg131
F0.0
sg31
F0.0
sg6
F0.0
ssS'"I" "SSH"'
p2419
(dp2420
g14
F0.0
sg49
F0.0
ssS'"B" "A" "I"'
p2421
(dp2422
g34
F0.0
sg36
F0.0
ssS'"A" "A" "B" "U"'
p2423
(dp2424
g36
F0.0
ssS'"P" "A" "U"'
p2425
(dp2426
g15
F0.0
ssS'"R" "U" "B"'
p2427
(dp2428
g46
F0.0
sg8
F0.0
ssS'"O" "D"'
p2429
(dp2430
g51
F0.0
sg46
F0.0
sg35
F0.0
sg49
F1.885196565582285e-36
ssS'"O" "BB"'
p2431
(dp2432
g35
F0.0
ssS'"R" "A"'
p2433
(dp2434
g138
F0.0
sg31
F0.0
sg7
F9.328301862432e-311
sg18
F0.0
sg50
F5.2406596834416065e-170
sg42
F9.392167263467559e-136
sg48
F1.4072072572338022e-182
sg6
F0.0
sg35
F1.1863440422233035e-130
sg203
F0.0
sg46
F8.786071971498095e-41
sg8
F3.362120437791509e-200
ssS'"R" "A" "R"'
p2435
(dp2436
g42
F0.0
ssS'"R" "A" "SH"'
p2437
(dp2438
g42
F0.0
ssS'"D" "A" "R" "U"'
p2439
(dp2440
g49
F0.0
ssS'"O" "GG" "U"'
p2441
(dp2442
g40
F0.0
ssS'"H" "O"'
p2443
(dp2444
g119
F8.60312950231486e-27
sg42
F0.0
sg51
F0.0
sg120
F1.2110410609681622e-38
ssS'"E" "TCH" "I"'
p2445
(dp2446
g225
F0.0
sg44
F0.0
ssS'"CH" "Y" "U"'
p2447
(dp2448
g225
F2.138502644327003e-94
sg59
F1.4947669436925323e-106
ssS'"B" "O" "I"'
p2449
(dp2450
g34
F0.0
sg36
F0.0
ss.